(dp1
S'output'
p2
S"<type 'exceptions.TypeError'> format requires a mapping"
p3
sS'layer'
p4
S'/ug/ug2k13/cse/srikailash.gandebathula/Desktop/web2py/applications/project/controllers/meet.py'
p5
sS'code'
p6
S'import os\nimport time\ndef user():\n    """\n    exposes:\n    http://..../[app]/default/user/login\n    http://..../[app]/default/user/logout\n    http://..../[app]/default/user/register\n    http://..../[app]/default/user/profile\n    http://..../[app]/default/user/retrieve_password\n    http://..../[app]/default/user/change_password\n    http://..../[app]/default/user/manage_users (requires membership in\n    use @auth.requires_login()\n        @auth.requires_membership(\'group name\')\n        @auth.requires_permission(\'read\',\'table name\',record_id)\n    to decorate functions that need access control\n    """\n    return dict(form=auth())\n@auth.requires_login()\ndef mycal():\n    rows=db(db.t_appointment.created_by==auth.user.id).select()\n    return dict(rows=rows)\n\ndef index():\n\treturn dict()\n\n@auth.requires_login()\ndef first():\n    user=\'%(first_name)s\'%auth.user\n    print "first"\n    tb1=DB[\'user_list\']\n    test=DB().select(tb1.ALL ,orderby=tb1.id)\n    for i in test:\n\t    if i.user_name == user:\n\t    \tprint user is i.user_name\n\t    \tprint "user found in user_list"\n\t    \tredirect(URL(\'index\'))\n    tb1=DB[\'user_list\']\n    test=DB().select(tb1.ALL ,orderby=tb1.id)\n    tb2=DB[\'moderator_list\']\n    form = SQLFORM.factory(Field(\'meeting_name\',requires=IS_NOT_EMPTY()),Field(\'subject\',requires=IS_NOT_EMPTY()),Field(\'location\',requires=IS_NOT_EMPTY()),Field(\'date\'),Field(\'already_registered\',\'boolean\'))\n    if form.process().accepted:\n        name = form.vars.meeting_name\n\tif form.vars.already_registered == True:\n\t\tredirect(URL(\'fourth\',vars=dict(name=name)))\n\tname = form.vars.meeting_name\n\tprint "first",DB.tables\n\ttb=DB[\'meeting_list\']\n\ttb.insert(meeting_name=name,moderator_name=user,subject=form.vars.subject,location=form.vars.location,date=form.vars.date)\n\tif name not in DB.tables:\n\t    DB.define_table(name,Field(\'user_name\',\'string\',requires=IS_NOT_EMPTY()),\n\t\t\t    Field(\'body\',\'text\', requires=IS_NOT_EMPTY()),Field(\'time\',\'string\'),migrate=True)#,format=lambda r: r.name or \'anonymous\')\n\t    DB.define_table(name+\'_\'+\'names\',Field(\'user_name\',\'string\', requires=IS_NOT_EMPTY()),migrate=True)\n\t    DB.define_table(name+\'_\'+\'users\',Field(\'user_name\',\'string\', requires=IS_NOT_EMPTY()),Field(\'email\',requires=IS_EMAIL()),migrate=True)\n\t    DB.define_table(name+\'_\'+\'files\',Field(\'user_name\',\'string\', requires=IS_NOT_EMPTY()),Field(\'file\',\'upload\'))\n\tprint "&&&&&&&&&&&&&&&&&"\n        tb2.insert(user_name=user,meeting_name=name)\t\n\tredirect(URL(\'fourth\',vars=dict(name=name)))\n    return dict(form = form)\n\ndef second():\n     name = request.vars.name or redirect(URL(\'first\'))\n     tb = DB[name]\n     txt = DB().select(tb.ALL ,orderby=tb.id)\n     redirect(URL(\'fourth\',vars=dict(name=name)))\n\n\ndef fourth():\n    name = request.vars.name or redirect(URL(\'first\'))\n    tb = DB[name]\n    tb1 = DB[name+\'_\'+\'names\']\n    tb2 = DB[name+\'_\'+\'files\']\n    tb3 = DB[name+\'_\'+\'users\']\n    form1 = SQLFORM(tb2)\n    form = SQLFORM.factory(Field(\'user_name\',\'string\',requires=IS_IN_DB(DB,tb3.user_name)),Field(\'body\',\'text\',requires=IS_NOT_EMPTY()))\n    form3 = SQLFORM.factory(Field(\'meeting_name\',requires=IS_NOT_EMPTY()))\n\t\t\n    if form.process(formname=\'form\').accepted:\n\ttb.insert(user_name=form.vars.user_name,body=form.vars.body,time=time.strftime("%d-%a/%H:%M:%S"))\n        response.flash = T("Ur notes is updated!")\n    if form1.process(formname=\'form_one\').accepted:\n        response.flash = T("Ur file is uploaded!")\t\n    text = DB().select(tb.ALL ,orderby=tb.id)\n    names = DB().select(tb1.ALL,orderby=tb1.id)\n    if form3.process().accepted:\n\tredirect (URL(\'emailusers\', vars={\'meeting_name\': form3.vars.meeting_name}))\n    return dict(text = text,name=name,names=names,form=form,form1=form1,form3=form3)\n\ndef startmeeting():\n    import time\n    session.b=time.strftime("%H:%M:%S")\n    a=session.b\n    name = request.vars.name\n    tb = DB[name]\n    tb1 = DB[name+\'_\'+\'names\']\n    text = DB().select(tb.ALL ,orderby=tb.id)\n    names = DB().select(tb1.ALL,orderby=tb1.id)\n    return dict(text = text,name=name,names=names,a=a)\n\n\ndef fileupload():\n\tform = SQLFORM.factory(Field(\'file\',\'upload\',uploadfolder=os.path.join(request.folder,\'uploads\')),Field(\'user_name\',requires=IS_NOT_EMPTY()))\n \tif form.vars.file and form.process().accepted:\n            response.flash = T("Ur file is uploaded!")\n\treturn dict(form=form)\n\ndef sixth():\n    name = request.get_vars[\'start\'].split(\'/\')\n    tb = DB[name[0]]\n    print name[0]\n    j = tb(int(name[1])) or redirect(URL(\'fourth\'))\n    print "sixth",j\n    return dict(name=j)\n\ndef seventh():\n    name = request.get_vars[\'start\'].split(\'/\')\n    tb = DB[name[0]]\n    tb.insert(body=name[1],user_name=name[2])\n    text = DB().select(tb.ALL ,orderby=tb.id)\n    name = name[0]\n    return dict(text=text,name=name)\n\ndef eight():\n    name = request.get_vars[\'start\'].split(\'/\')\n    tb = DB[name[0]]\n    txt = DB().select(tb.ALL ,orderby=tb.id)\n    return dict(text=txt,name=name[1])\n\ndef ninth():\n    print "*********"\n    user=request.args[0]\n    meeting=request.args[1]\n    print user +"to be added to" +meeting\n    table_name=meeting+\'_names\'\n    print "table name is"+table_name\n    tb = DB[table_name]\n    text = DB().select(tb.ALL ,orderby=tb.id)\n    print "text is"\n    flag=0\n    for i in text:\n        if i.user_name == user:\t\n\t    print "check22"\n\t    flag=1\n            print "flag set"\n    print "check3333"\n    session.flash=T("user added to the meeting")\t\n\n    if flag == 0:\t\n        print "flag is 0"\n\ttb.insert(user_name=user)\n    \tresponse.flash=T("user added to the meeting")\t\n    return dict(text = text) \n\n\n@auth.requires_login()\n\ndef tenth():\n\tuser=\'%(first_name)s\'%auth.user\n        tb1=DB[\'moderator_list\']\n\ttest=DB().select(tb1.ALL ,orderby=tb1.id)\n\tfor i in test:\n\t        if i.user_name == user:\n\t                redirect(URL(\'index\'))\n\tprint user\t\n\ttb2=DB[\'user_list\']\n\ttb2.insert(user_name=user)\n\ttable_name=user\n\tresponse.flash=T(\'check1\')\n\tif table_name not in DB.tables:\n             DB.define_table(table_name,Field(\'meetings\'))\n\tform = SQLFORM.factory(Field(\'register_to_meeting\',requires=IS_NOT_EMPTY()),Field(\'email\',requires=IS_EMAIL()))\n\tif form.process().accepted:\n\t\tname=form.vars.register_to_meeting\n\t\temailid=form.vars.email\n\t\tresponse.flash=T(name)\n\t\tresponse.flash=T(\'check2\')\n\t\tmeet_name=name+\'_\'+\'users\'\n\t\tif meet_name not in DB.tables:\n\t\t\tresponse.flash=T(\'Meeting not registered\')\n\t\telse:\n\t\t\ttb=DB[name+\'_\'+\'users\']\n\t\t\ttb.insert(user_name=user,email=emailid)\n\t\t\tresponse.flash=T(\'registration successful\')\n\t\tprint user+\'i am user\'\n\tsession.list=[]\n\ttemp=[]\n\ttb2=DB[\'meeting_list\']\n\ttext2=DB().select(tb2.ALL ,orderby=tb2.id)\n\tfor i in text2:\n\t\tprint i.meeting_list.meeting_name\n\t\tj=i.meeting_list.meeting_name+\'_users\'\n\t\ttb3=DB[j]\n\t\ttext3=DB().select(tb3.ALL ,orderby=tb3.id)\n\t\tfor p in text3:\n\t\t\tif p.user_name == user:\n\t\t\t\ttemp.append(user)\n\t\t\t\ttemp.append(i.meeting_list.meeting_name)\n\t\t\t\tsession.list.append(temp)\n\t\t\t\tprint user + " in " + i.meeting_list.meeting_name \n\n\treturn dict(form=form)\n\ndef search():\n\treturn dict()\n\ndef adduser():\n\tmeeting_name=request.vars.meeting_name\t\n\tsession.meeting_name=meeting_name\n\tprint "addusr",meeting_name\n\tmeeting_name=meeting_name+\'_users\'\n\ttb=DB[meeting_name]\n\ttext = DB().select(tb.ALL ,orderby=tb.id)\n\tsession.list=[]\n\tfor row in text:\n\t\tflag=0\n\t\tfor i in session.list:\n\t\t\tif i == row.user_name:\n\t\t\t\tflag=1\n\t        if flag is 0:\n\t\t\tprint row.user_name\n\t\t\tsession.list.append(row.user_name)\n        return dict()\n\ndef meets():\n\ttb=DB[\'meeting_list\']\n\ttext=DB().select(tb.ALL,orderby=tb.id)\n\treturn dict(text=text)\n\n\ndef showmeet():\n    name = request.get_vars[\'start\']\n    print "check",name\n    tb=DB[\'meeting_list\']\n    n=int(name) \n    print n \n    text=DB().select(tb.ALL,orderby=tb.id)\n    for i in text:\n\t    print i.meeting_list.id\n\t    if i.meeting_list.id == n:\t\n\t\tname=i\t\n\t        print "row found"\n    return dict(name=name)\n\ndef emailusers():\n\t user=\'%(first_name)s\'%auth.user\n\t meet=request.vars.meeting_name\n\t form1 = SQLFORM.factory(Field(\'body\',\'text\',requires=IS_NOT_EMPTY()))\n\t if form1.process().accepted:\n\t \tredirect (URL(\'email\', vars={\'meeting_name\': meet ,\'body\':form1.vars.body }))\n\t tb=DB[\'moderator_list\']\n\t test=DB().select(tb.ALL,orderby=tb.id)\n\t tb2=DB[meet]\n    \t text=DB().select(tb2.ALL,orderby=tb2.id)\n\t return dict(form1=form1,text=text,meeting_name=meet)\n\ndef email():\n\t   meet=request.vars.meeting_name\n\t   body=request.vars.body\n\t   name=meet+\'_users\'\n\t   tb=DB[name]\n\t   text=DB().select(tb.ALL,orderby=tb.id)\n\t   list=[]\n\t   for i in text:\n\t   \tprint "emai is " +i.email\n\t   \tlist.append(i.email)\n\t   print list\n\t   from gluon.tools import Mail\n           mail = Mail()\n           mail.settings.server = \'students.iiit.ac.in:25\'\n           mail.settings.sender = \'srikailash.gandebathula@students.iiit.ac.in\'\n           mail.settings.login = \'srikailash.gandebathula:24101995\'\n\t   for i in list:\n\t\tmail.send(to=[i],subject=\'Regarding \'+meet, message=body)\n\t   redirect (URL(\'index\'))\n\nresponse._vars=response._caller(emailusers)\n'
p7
sS'snapshot'
p8
(dp9
S'exception'
p10
(dp11
S'__hash__'
p12
S"<method-wrapper '__hash__' of exceptions.TypeError object>"
p13
sS'__setattr__'
p14
S"<method-wrapper '__setattr__' of exceptions.TypeError object>"
p15
sS'__reduce_ex__'
p16
S'<built-in method __reduce_ex__ of exceptions.TypeError object>'
p17
sS'__getslice__'
p18
S"<method-wrapper '__getslice__' of exceptions.TypeError object>"
p19
sS'__getitem__'
p20
S"<method-wrapper '__getitem__' of exceptions.TypeError object>"
p21
sS'__setstate__'
p22
S'<built-in method __setstate__ of exceptions.TypeError object>'
p23
sS'__reduce__'
p24
S'<built-in method __reduce__ of exceptions.TypeError object>'
p25
sS'__str__'
p26
S"<method-wrapper '__str__' of exceptions.TypeError object>"
p27
sS'__format__'
p28
S'<built-in method __format__ of exceptions.TypeError object>'
p29
sS'__getattribute__'
p30
S"<method-wrapper '__getattribute__' of exceptions.TypeError object>"
p31
sS'__class__'
p32
S"<type 'exceptions.TypeError'>"
p33
sS'__unicode__'
p34
S'<built-in method __unicode__ of exceptions.TypeError object>'
p35
sS'__delattr__'
p36
S"<method-wrapper '__delattr__' of exceptions.TypeError object>"
p37
sS'__subclasshook__'
p38
S'<built-in method __subclasshook__ of type object>'
p39
sS'__repr__'
p40
S"<method-wrapper '__repr__' of exceptions.TypeError object>"
p41
sS'args'
p42
S"('format requires a mapping',)"
p43
sS'__dict__'
p44
S'{}'
p45
sS'__sizeof__'
p46
S'<built-in method __sizeof__ of exceptions.TypeError object>'
p47
sS'__doc__'
p48
S"'Inappropriate argument type.'"
p49
sS'__init__'
p50
S"<method-wrapper '__init__' of exceptions.TypeError object>"
p51
sS'__new__'
p52
S'<built-in method __new__ of type object>'
p53
ssS'evalue'
p54
S'format requires a mapping'
p55
sS'request'
p56
cgluon.html
XML_unpickle
p57
(S'sUK\x00\x00<div><table><tr><td style="font-weight:bold;vertical-align:top;">ajax</td><td style="vertical-align:top;">:</td><td><div>False</div></td></tr><tr><td style="font-weight:bold;vertical-align:top;">application</td><td style="vertical-align:top;">:</td><td><div>project</div></td></tr><tr><td style="font-weight:bold;vertical-align:top;">args</td><td style="vertical-align:top;">:</td><td><div><table></table></div></td></tr><tr><td style="font-weight:bold;vertical-align:top;">cid</td><td style="vertical-align:top;">:</td><td><div>None</div></td></tr><tr><td style="font-weight:bold;vertical-align:top;">client</td><td style="vertical-align:top;">:</td><td><div>127.0.0.1</div></td></tr><tr><td style="font-weight:bold;vertical-align:top;">controller</td><td style="vertical-align:top;">:</td><td><div>meet</div></td></tr><tr><td style="font-weight:bold;vertical-align:top;">cookies</td><td style="vertical-align:top;">:</td><td><div><table></table></div></td></tr><tr><td style="font-weight:bold;vertical-align:top;">env</td><td style="vertical-align:top;">:</td><td><div><table><tr><td style="font-weight:bold;vertical-align:top;">HTTP_ACCEPT</td><td style="vertical-align:top;">:</td><td><div>text/html,application/xhtml+xml,application/xml;q=0.9,*/*;q=0.8</div></td></tr><tr><td style="font-weight:bold;vertical-align:top;">HTTP_ACCEPT_ENCODING</td><td style="vertical-align:top;">:</td><td><div>gzip, deflate</div></td></tr><tr><td style="font-weight:bold;vertical-align:top;">HTTP_ACCEPT_LANGUAGE</td><td style="vertical-align:top;">:</td><td><div>en-US,en;q=0.5</div></td></tr><tr><td style="font-weight:bold;vertical-align:top;">HTTP_CACHE_CONTROL</td><td style="vertical-align:top;">:</td><td><div>no-cache</div></td></tr><tr><td style="font-weight:bold;vertical-align:top;">HTTP_CONNECTION</td><td style="vertical-align:top;">:</td><td><div>keep-alive</div></td></tr><tr><td style="font-weight:bold;vertical-align:top;">HTTP_HOST</td><td style="vertical-align:top;">:</td><td><div>127.0.0.1:8000</div></td></tr><tr><td style="font-weight:bold;vertical-align:top;">HTTP_PRAGMA</td><td style="vertical-align:top;">:</td><td><div>no-cache</div></td></tr><tr><td style="font-weight:bold;vertical-align:top;">HTTP_USER_AGENT</td><td style="vertical-align:top;">:</td><td><div>Mozilla/5.0 (X11; Linux i686; rv:28.0) Gecko/20100101 Firefox/28.0</div></td></tr><tr><td style="font-weight:bold;vertical-align:top;">PATH_INFO</td><td style="vertical-align:top;">:</td><td><div>/project/meet/emailusers</div></td></tr><tr><td style="font-weight:bold;vertical-align:top;">QUERY_STRING</td><td style="vertical-align:top;">:</td><td><div></div></td></tr><tr><td style="font-weight:bold;vertical-align:top;">REMOTE_ADDR</td><td style="vertical-align:top;">:</td><td><div>127.0.0.1</div></td></tr><tr><td style="font-weight:bold;vertical-align:top;">REMOTE_PORT</td><td style="vertical-align:top;">:</td><td><div>43116</div></td></tr><tr><td style="font-weight:bold;vertical-align:top;">REQUEST_METHOD</td><td style="vertical-align:top;">:</td><td><div>GET</div></td></tr><tr><td style="font-weight:bold;vertical-align:top;">SCRIPT_NAME</td><td style="vertical-align:top;">:</td><td><div></div></td></tr><tr><td style="font-weight:bold;vertical-align:top;">SERVER_NAME</td><td style="vertical-align:top;">:</td><td><div>CR13037</div></td></tr><tr><td style="font-weight:bold;vertical-align:top;">SERVER_PORT</td><td style="vertical-align:top;">:</td><td><div>8000</div></td></tr><tr><td style="font-weight:bold;vertical-align:top;">SERVER_PROTOCOL</td><td style="vertical-align:top;">:</td><td><div>HTTP/1.1</div></td></tr><tr><td style="font-weight:bold;vertical-align:top;">SERVER_SOFTWARE</td><td style="vertical-align:top;">:</td><td><div>Rocket 1.2.6</div></td></tr><tr><td style="font-weight:bold;vertical-align:top;">app_folders</td><td style="vertical-align:top;">:</td><td><div>set([&#x27;/ug/ug2k13/cse/srikailash.gandebathula/Desktop/web2py/applications/welcome/&#x27;, &#x27;/ug/ug2k13/cse/srikailash.gandebathula/Desktop/web2py/applications/admin/&#x27;, &#x27;/ug/ug2k13/cse/srikailash.gandebathula/Desktop/web2py/applications/project/&#x27;])</div></td></tr><tr><td style="font-weight:bold;vertical-align:top;">applications_parent</td><td style="vertical-align:top;">:</td><td><div>/ug/ug2k13/cse/srikailash.gandebathula/Desktop/web2py</div></td></tr><tr><td style="font-weight:bold;vertical-align:top;">cmd_args</td><td style="vertical-align:top;">:</td><td><div><table></table></div></td></tr><tr><td style="font-weight:bold;vertical-align:top;">cmd_options</td><td style="vertical-align:top;">:</td><td><div>&lt;Values at 0x8ae8a0c: {&#x27;verbose&#x27;: False, &#x27;ip&#x27;: &#x27;127.0.0.1&#x27;, &#x27;debuglevel&#x27;: 30, &#x27;with_scheduler&#x27;: False, &#x27;ips&#x27;: [&#x27;::1&#x27;], &#x27;shutdown_timeout&#x27;: 5, &#x27;taskbar&#x27;: False, &#x27;with_coverage&#x27;: False, &#x27;port&#x27;: 8000, &#x27;maxthreads&#x27;: None, &#x27;softcron&#x27;: False, &#x27;server_name&#x27;: &#x27;CR13037&#x27;, &#x27;bpython&#x27;: False, &#x27;nogui&#x27;: False, &#x27;pid_filename&#x27;: &#x27;httpserver.pid&#x27;, &#x27;extcron&#x27;: False, &#x27;runcron&#x27;: False, &#x27;run_system_tests&#x27;: False, &#x27;test&#x27;: None, &#x27;folder&#x27;: &#x27;/ug/ug2k13/cse/srikailash.gandebathula/Desktop/web2py&#x27;, &#x27;config&#x27;: &#x27;&#x27;, &#x27;minthreads&#x27;: None, &#x27;shell&#x27;: None, &#x27;run&#x27;: &#x27;&#x27;, &#x27;log_filename&#x27;: &#x27;httpserver.log&#x27;, &#x27;profiler_dir&#x27;: None, &#x27;args&#x27;: [&#x27;&#x27;], &#x27;socket_timeout&#x27;: 5, &#x27;ssl_ca_certificate&#x27;: None, &#x27;scheduler&#x27;: None, &#x27;interfaces&#x27;: None, &#x27;ssl_private_key&#x27;: &#x27;&#x27;, &#x27;scheduler_groups&#x27;: None, &#x27;password&#x27;: &#x27;&lt;ask&gt;&#x27;, &#x27;request_queue_size&#x27;: 5, &#x27;ssl_certificate&#x27;: &#x27;&#x27;, &#x27;cronjob&#x27;: False, &#x27;numthreads&#x27;: None, &#x27;quiet&#x27;: False, &#x27;import_models&#x27;: False, &#x27;timeout&#x27;: 10, &#x27;plain&#x27;: False, &#x27;nobanner&#x27;: False}&gt;</div></td></tr><tr><td style="font-weight:bold;vertical-align:top;">db_sessions</td><td style="vertical-align:top;">:</td><td><div>set([])</div></td></tr><tr><td style="font-weight:bold;vertical-align:top;">debugging</td><td style="vertical-align:top;">:</td><td><div>False</div></td></tr><tr><td style="font-weight:bold;vertical-align:top;">gluon_parent</td><td style="vertical-align:top;">:</td><td><div>/ug/ug2k13/cse/srikailash.gandebathula/Desktop/web2py</div></td></tr><tr><td style="font-weight:bold;vertical-align:top;">http_accept</td><td style="vertical-align:top;">:</td><td><div>text/html,application/xhtml+xml,application/xml;q=0.9,*/*;q=0.8</div></td></tr><tr><td style="font-weight:bold;vertical-align:top;">http_accept_encoding</td><td style="vertical-align:top;">:</td><td><div>gzip, deflate</div></td></tr><tr><td style="font-weight:bold;vertical-align:top;">http_accept_language</td><td style="vertical-align:top;">:</td><td><div>en-US,en;q=0.5</div></td></tr><tr><td style="font-weight:bold;vertical-align:top;">http_cache_control</td><td style="vertical-align:top;">:</td><td><div>no-cache</div></td></tr><tr><td style="font-weight:bold;vertical-align:top;">http_connection</td><td style="vertical-align:top;">:</td><td><div>keep-alive</div></td></tr><tr><td style="font-weight:bold;vertical-align:top;">http_host</td><td style="vertical-align:top;">:</td><td><div>127.0.0.1:8000</div></td></tr><tr><td style="font-weight:bold;vertical-align:top;">http_pragma</td><td style="vertical-align:top;">:</td><td><div>no-cache</div></td></tr><tr><td style="font-weight:bold;vertical-align:top;">http_user_agent</td><td style="vertical-align:top;">:</td><td><div>Mozilla/5.0 (X11; Linux i686; rv:28.0) Gecko/20100101 Firefox/28.0</div></td></tr><tr><td style="font-weight:bold;vertical-align:top;">is_jython</td><td style="vertical-align:top;">:</td><td><div>False</div></td></tr><tr><td style="font-weight:bold;vertical-align:top;">is_pypy</td><td style="vertical-align:top;">:</td><td><div>False</div></td></tr><tr><td style="font-weight:bold;vertical-align:top;">is_source</td><td style="vertical-align:top;">:</td><td><div>True</div></td></tr><tr><td style="font-weight:bold;vertical-align:top;">local_hosts</td><td style="vertical-align:top;">:</td><td><div><table><tr><td><div>CR13037</div></td></tr><tr><td><div>::ffff:127.0.0.1</div></td></tr><tr><td><div>::1</div></td></tr><tr><td><div>10.3.10.63</div></td></tr><tr><td><div>localhost6.localdomain6</div></td></tr><tr><td><div>127.0.0.1</div></td></tr></table></div></td></tr><tr><td style="font-weight:bold;vertical-align:top;">path_info</td><td style="vertical-align:top;">:</td><td><div>/project/meet/emailusers</div></td></tr><tr><td style="font-weight:bold;vertical-align:top;">query_string</td><td style="vertical-align:top;">:</td><td><div></div></td></tr><tr><td style="font-weight:bold;vertical-align:top;">remote_addr</td><td style="vertical-align:top;">:</td><td><div>127.0.0.1</div></td></tr><tr><td style="font-weight:bold;vertical-align:top;">remote_port</td><td style="vertical-align:top;">:</td><td><div>43116</div></td></tr><tr><td style="font-weight:bold;vertical-align:top;">request_method</td><td style="vertical-align:top;">:</td><td><div>GET</div></td></tr><tr><td style="font-weight:bold;vertical-align:top;">request_uri</td><td style="vertical-align:top;">:</td><td><div>/project/meet/emailusers</div></td></tr><tr><td style="font-weight:bold;vertical-align:top;">script_name</td><td style="vertical-align:top;">:</td><td><div></div></td></tr><tr><td style="font-weight:bold;vertical-align:top;">server_name</td><td style="vertical-align:top;">:</td><td><div>CR13037</div></td></tr><tr><td style="font-weight:bold;vertical-align:top;">server_port</td><td style="vertical-align:top;">:</td><td><div>8000</div></td></tr><tr><td style="font-weight:bold;vertical-align:top;">server_protocol</td><td style="vertical-align:top;">:</td><td><div>HTTP/1.1</div></td></tr><tr><td style="font-weight:bold;vertical-align:top;">server_software</td><td style="vertical-align:top;">:</td><td><div>Rocket 1.2.6</div></td></tr><tr><td style="font-weight:bold;vertical-align:top;">web2py_path</td><td style="vertical-align:top;">:</td><td><div>/ug/ug2k13/cse/srikailash.gandebathula/Desktop/web2py</div></td></tr><tr><td style="font-weight:bold;vertical-align:top;">web2py_version</td><td style="vertical-align:top;">:</td><td><div>2.9.5-stable+timestamp.2014.03.16.02.35.39</div></td></tr><tr><td style="font-weight:bold;vertical-align:top;">wsgi.errors</td><td style="vertical-align:top;">:</td><td><div>&lt;open file &#x27;&lt;stderr&gt;&#x27;, mode &#x27;w&#x27; at 0xb77f40d0&gt;</div></td></tr><tr><td style="font-weight:bold;vertical-align:top;">wsgi.file_wrapper</td><td style="vertical-align:top;">:</td><td><div>&lt;class wsgiref.util.FileWrapper at 0x8aa2e9c&gt;</div></td></tr><tr><td style="font-weight:bold;vertical-align:top;">wsgi.input</td><td style="vertical-align:top;">:</td><td><div>&lt;socket._fileobject object at 0x8f2a7ac&gt;</div></td></tr><tr><td style="font-weight:bold;vertical-align:top;">wsgi.multiprocess</td><td style="vertical-align:top;">:</td><td><div>False</div></td></tr><tr><td style="font-weight:bold;vertical-align:top;">wsgi.multithread</td><td style="vertical-align:top;">:</td><td><div>True</div></td></tr><tr><td style="font-weight:bold;vertical-align:top;">wsgi.run_once</td><td style="vertical-align:top;">:</td><td><div>False</div></td></tr><tr><td style="font-weight:bold;vertical-align:top;">wsgi.url_scheme</td><td style="vertical-align:top;">:</td><td><div>http</div></td></tr><tr><td style="font-weight:bold;vertical-align:top;">wsgi.version</td><td style="vertical-align:top;">:</td><td><div><table><tr><td><div>1</div></td></tr><tr><td><div>0</div></td></tr></table></div></td></tr><tr><td style="font-weight:bold;vertical-align:top;">wsgi_errors</td><td style="vertical-align:top;">:</td><td><div>&lt;open file &#x27;&lt;stderr&gt;&#x27;, mode &#x27;w&#x27; at 0xb77f40d0&gt;</div></td></tr><tr><td style="font-weight:bold;vertical-align:top;">wsgi_file_wrapper</td><td style="vertical-align:top;">:</td><td><div>&lt;class wsgiref.util.FileWrapper at 0x8aa2e9c&gt;</div></td></tr><tr><td style="font-weight:bold;vertical-align:top;">wsgi_input</td><td style="vertical-align:top;">:</td><td><div>&lt;socket._fileobject object at 0x8f2a7ac&gt;</div></td></tr><tr><td style="font-weight:bold;vertical-align:top;">wsgi_multiprocess</td><td style="vertical-align:top;">:</td><td><div>False</div></td></tr><tr><td style="font-weight:bold;vertical-align:top;">wsgi_multithread</td><td style="vertical-align:top;">:</td><td><div>True</div></td></tr><tr><td style="font-weight:bold;vertical-align:top;">wsgi_run_once</td><td style="vertical-align:top;">:</td><td><div>False</div></td></tr><tr><td style="font-weight:bold;vertical-align:top;">wsgi_url_scheme</td><td style="vertical-align:top;">:</td><td><div>http</div></td></tr><tr><td style="font-weight:bold;vertical-align:top;">wsgi_version</td><td style="vertical-align:top;">:</td><td><div><table><tr><td><div>1</div></td></tr><tr><td><div>0</div></td></tr></table></div></td></tr></table></div></td></tr><tr><td style="font-weight:bold;vertical-align:top;">extension</td><td style="vertical-align:top;">:</td><td><div>html</div></td></tr><tr><td style="font-weight:bold;vertical-align:top;">folder</td><td style="vertical-align:top;">:</td><td><div>/ug/ug2k13/cse/srikailash.gandebathula/Desktop/web2py/applications/project/</div></td></tr><tr><td style="font-weight:bold;vertical-align:top;">function</td><td style="vertical-align:top;">:</td><td><div>emailusers</div></td></tr><tr><td style="font-weight:bold;vertical-align:top;">global_settings</td><td style="vertical-align:top;">:</td><td><div><table><tr><td style="font-weight:bold;vertical-align:top;">app_folders</td><td style="vertical-align:top;">:</td><td><div>set([&#x27;/ug/ug2k13/cse/srikailash.gandebathula/Desktop/web2py/applications/welcome/&#x27;, &#x27;/ug/ug2k13/cse/srikailash.gandebathula/Desktop/web2py/applications/admin/&#x27;, &#x27;/ug/ug2k13/cse/srikailash.gandebathula/Desktop/web2py/applications/project/&#x27;])</div></td></tr><tr><td style="font-weight:bold;vertical-align:top;">applications_parent</td><td style="vertical-align:top;">:</td><td><div>/ug/ug2k13/cse/srikailash.gandebathula/Desktop/web2py</div></td></tr><tr><td style="font-weight:bold;vertical-align:top;">cmd_args</td><td style="vertical-align:top;">:</td><td><div><table></table></div></td></tr><tr><td style="font-weight:bold;vertical-align:top;">cmd_options</td><td style="vertical-align:top;">:</td><td><div>&lt;Values at 0x8ae8a0c: {&#x27;verbose&#x27;: False, &#x27;ip&#x27;: &#x27;127.0.0.1&#x27;, &#x27;debuglevel&#x27;: 30, &#x27;with_scheduler&#x27;: False, &#x27;ips&#x27;: [&#x27;::1&#x27;], &#x27;shutdown_timeout&#x27;: 5, &#x27;taskbar&#x27;: False, &#x27;with_coverage&#x27;: False, &#x27;port&#x27;: 8000, &#x27;maxthreads&#x27;: None, &#x27;softcron&#x27;: False, &#x27;server_name&#x27;: &#x27;CR13037&#x27;, &#x27;bpython&#x27;: False, &#x27;nogui&#x27;: False, &#x27;pid_filename&#x27;: &#x27;httpserver.pid&#x27;, &#x27;extcron&#x27;: False, &#x27;runcron&#x27;: False, &#x27;run_system_tests&#x27;: False, &#x27;test&#x27;: None, &#x27;folder&#x27;: &#x27;/ug/ug2k13/cse/srikailash.gandebathula/Desktop/web2py&#x27;, &#x27;config&#x27;: &#x27;&#x27;, &#x27;minthreads&#x27;: None, &#x27;shell&#x27;: None, &#x27;run&#x27;: &#x27;&#x27;, &#x27;log_filename&#x27;: &#x27;httpserver.log&#x27;, &#x27;profiler_dir&#x27;: None, &#x27;args&#x27;: [&#x27;&#x27;], &#x27;socket_timeout&#x27;: 5, &#x27;ssl_ca_certificate&#x27;: None, &#x27;scheduler&#x27;: None, &#x27;interfaces&#x27;: None, &#x27;ssl_private_key&#x27;: &#x27;&#x27;, &#x27;scheduler_groups&#x27;: None, &#x27;password&#x27;: &#x27;&lt;ask&gt;&#x27;, &#x27;request_queue_size&#x27;: 5, &#x27;ssl_certificate&#x27;: &#x27;&#x27;, &#x27;cronjob&#x27;: False, &#x27;numthreads&#x27;: None, &#x27;quiet&#x27;: False, &#x27;import_models&#x27;: False, &#x27;timeout&#x27;: 10, &#x27;plain&#x27;: False, &#x27;nobanner&#x27;: False}&gt;</div></td></tr><tr><td style="font-weight:bold;vertical-align:top;">db_sessions</td><td style="vertical-align:top;">:</td><td><div>set([])</div></td></tr><tr><td style="font-weight:bold;vertical-align:top;">debugging</td><td style="vertical-align:top;">:</td><td><div>False</div></td></tr><tr><td style="font-weight:bold;vertical-align:top;">gluon_parent</td><td style="vertical-align:top;">:</td><td><div>/ug/ug2k13/cse/srikailash.gandebathula/Desktop/web2py</div></td></tr><tr><td style="font-weight:bold;vertical-align:top;">is_jython</td><td style="vertical-align:top;">:</td><td><div>False</div></td></tr><tr><td style="font-weight:bold;vertical-align:top;">is_pypy</td><td style="vertical-align:top;">:</td><td><div>False</div></td></tr><tr><td style="font-weight:bold;vertical-align:top;">is_source</td><td style="vertical-align:top;">:</td><td><div>True</div></td></tr><tr><td style="font-weight:bold;vertical-align:top;">local_hosts</td><td style="vertical-align:top;">:</td><td><div><table><tr><td><div>CR13037</div></td></tr><tr><td><div>::ffff:127.0.0.1</div></td></tr><tr><td><div>::1</div></td></tr><tr><td><div>10.3.10.63</div></td></tr><tr><td><div>localhost6.localdomain6</div></td></tr><tr><td><div>127.0.0.1</div></td></tr></table></div></td></tr><tr><td style="font-weight:bold;vertical-align:top;">web2py_version</td><td style="vertical-align:top;">:</td><td><div>2.9.5-stable+timestamp.2014.03.16.02.35.39</div></td></tr></table></div></td></tr><tr><td style="font-weight:bold;vertical-align:top;">is_https</td><td style="vertical-align:top;">:</td><td><div>False</div></td></tr><tr><td style="font-weight:bold;vertical-align:top;">is_local</td><td style="vertical-align:top;">:</td><td><div>True</div></td></tr><tr><td style="font-weight:bold;vertical-align:top;">is_restful</td><td style="vertical-align:top;">:</td><td><div>False</div></td></tr><tr><td style="font-weight:bold;vertical-align:top;">now</td><td style="vertical-align:top;">:</td><td><div>datetime.datetime(2014, 4, 27, 12, 6, 23, 450117)</div></td></tr><tr><td style="font-weight:bold;vertical-align:top;">raw_args</td><td style="vertical-align:top;">:</td><td><div></div></td></tr><tr><td style="font-weight:bold;vertical-align:top;">raw_extension</td><td style="vertical-align:top;">:</td><td><div>None</div></td></tr><tr><td style="font-weight:bold;vertical-align:top;">url</td><td style="vertical-align:top;">:</td><td><div>/project/meet/emailusers</div></td></tr><tr><td style="font-weight:bold;vertical-align:top;">utcnow</td><td style="vertical-align:top;">:</td><td><div>datetime.datetime(2014, 4, 27, 6, 36, 23, 450144)</div></td></tr><tr><td style="font-weight:bold;vertical-align:top;">uuid</td><td style="vertical-align:top;">:</td><td><div>project/127.0.0.1.2014-04-27.12-06-23.a67dec97-422c-4ce5-b1bd-88b2bb47cd86</div></td></tr><tr><td style="font-weight:bold;vertical-align:top;">wsgi</td><td style="vertical-align:top;">:</td><td><div>&lt;gluon.main.LazyWSGI object at 0x9304aec&gt;</div></td></tr></table></div>'
tRp58
sS'frames'
p59
(lp60
(dp61
S'file'
p62
S'/ug/ug2k13/cse/srikailash.gandebathula/Desktop/web2py/gluon/restricted.py'
p63
sS'dump'
p64
(dp65
S'environment'
p66
S"{'A': <class 'gluon.html.A'>, 'ANY_OF': <class 'gluon.validators.ANY_OF'>, 'Auth': <class 'gluon.tools.Auth'>, 'B': <class 'gluon.html.B'>, 'BEAUTIFY': <class 'gluon.html.BEAUTIFY'>, 'BODY': <class 'gluon.html.BODY'>, 'BR': <class 'gluon.html.BR'>, 'BUTTON': <class 'gluon.html.BUTTON'>, 'CAT': <class 'gluon.html.CAT'>, 'CENTER': <class 'gluon.html.CENTER'>, ...}"
p67
sS'ccode'
p68
S'<code object <module> at 0xad2757b8, file "/ug/u...pplications/project/controllers/meet.py", line 1>'
p69
ssS'lnum'
p70
I220
sS'lines'
p71
(dp72
I224
S'        # do not encapsulate (obfuscate) the original RestrictedError'
p73
sI215
S'    try:'
p74
sI216
S'        if isinstance(code, types.CodeType):'
p75
sI217
S'            ccode = code'
p76
sI218
S'        else:'
p77
sI219
S'            ccode = compile2(code, layer)'
p78
sI220
S'        exec ccode in environment'
p79
sI221
S'    except HTTP:'
p80
sI222
S'        raise'
p81
sI223
S'    except RestrictedError:'
p82
ssS'call'
p83
S'(code=\'import os\\nimport time\\ndef user():\\n    """\\n    ex...\\\'))\\n\\nresponse._vars=response._caller(emailusers)\\n\', environment={\'A\': <class \'gluon.html.A\'>, \'ANY_OF\': <class \'gluon.validators.ANY_OF\'>, \'Auth\': <class \'gluon.tools.Auth\'>, \'B\': <class \'gluon.html.B\'>, \'BEAUTIFY\': <class \'gluon.html.BEAUTIFY\'>, \'BODY\': <class \'gluon.html.BODY\'>, \'BR\': <class \'gluon.html.BR\'>, \'BUTTON\': <class \'gluon.html.BUTTON\'>, \'CAT\': <class \'gluon.html.CAT\'>, \'CENTER\': <class \'gluon.html.CENTER\'>, ...}, layer=\'/ug/ug2k13/cse/srikailash.gandebathula/Desktop/web2py/applications/project/controllers/meet.py\')'
p84
sS'func'
p85
S'restricted'
p86
sa(dp87
g62
S'/ug/ug2k13/cse/srikailash.gandebathula/Desktop/web2py/applications/project/controllers/meet.py'
p88
sg64
(dp89
sg70
I276
sg71
(dp90
I265
S'\t   \tlist.append(i.email)'
p91
sI266
S'\t   print list'
p92
sI267
S'\t   from gluon.tools import Mail'
p93
sI268
S'           mail = Mail()'
p94
sI269
S"           mail.settings.server = 'students.iiit.ac.in:25'"
p95
sI270
S"           mail.settings.sender = 'srikailash.gandebathula@students.iiit.ac.in'"
p96
sI271
S"           mail.settings.login = 'srikailash.gandebathula:24101995'"
p97
sI272
S'\t   for i in list:'
p98
sI273
S"\t\tmail.send(to=[i],subject='Regarding '+meet, message=body)"
p99
sI274
S"\t   redirect (URL('index'))"
p100
ssg83
S'()'
p101
sg85
S'<module>'
p102
sa(dp103
g62
S'/ug/ug2k13/cse/srikailash.gandebathula/Desktop/web2py/gluon/globals.py'
p104
sg64
(dp105
S'self'
p106
S'undefined'
p107
sS'f'
S'<function emailusers>'
p108
ssg70
I385
sg71
(dp109
I384
S'        self._vars = None'
p110
sI385
S'        self._caller = lambda f: f()'
p111
sI386
S'        self._view_environment = None'
p112
sI387
S'        self._custom_commit = None'
p113
sI388
S'        self._custom_rollback = None'
p114
sI389
S''
sI380
S'        self.menu = []             # used by the default view layout'
p115
sI381
S'        self.files = []            # used by web2py_ajax.html'
p116
sI382
S'        self.generic_patterns = []  # patterns to allow generic views'
p117
sI383
S"        self.delimiters = ('{{', '}}')"
p118
ssg83
S'(f=<function emailusers>)'
p119
sg85
S'<lambda>'
p120
sa(dp121
g62
S'/ug/ug2k13/cse/srikailash.gandebathula/Desktop/web2py/applications/project/controllers/meet.py'
p122
sg64
(dp123
S'auth.user'
p124
S'None'
p125
sS'global user'
p126
S'<function user>'
p127
sS'global auth'
p128
S'<gluon.tools.Auth object>'
p129
ssg70
I245
sg71
(dp130
I240
S'\t\tname=i'
p131
sI241
S'\t        print "row found"'
p132
sI242
S'    return dict(name=name)'
p133
sI243
S''
sI244
S'def emailusers():'
p134
sI245
S"\t user='%(first_name)s'%auth.user"
p135
sI246
S'\t meet=request.vars.meeting_name'
p136
sI247
S"\t form1 = SQLFORM.factory(Field('body','text',requires=IS_NOT_EMPTY()))"
p137
sI248
S'\t if form1.process().accepted:'
p138
sI249
S"\t \tredirect (URL('email', vars={'meeting_name': meet ,'body':form1.vars.body }))"
p139
ssg83
S'()'
p140
sg85
S'emailusers'
p141
sasS'pyver'
p142
S'Python 2.7: /usr/bin/python (prefix: /usr)'
p143
sS'session'
p144
g57
(S's\x1a\x00\x00\x00<div><table></table></div>'
tRp145
sS'etype'
p146
S"<type 'exceptions.TypeError'>"
p147
sS'date'
p148
S'Sun Apr 27 12:06:23 2014'
p149
sS'response'
p150
g57
(S's\xd9\x1a\x00\x00<div><table><tr><td style="font-weight:bold;vertical-align:top;">body</td><td style="vertical-align:top;">:</td><td><div>&lt;cStringIO.StringO object at 0x9304540&gt;</div></td></tr><tr><td style="font-weight:bold;vertical-align:top;">cookies</td><td style="vertical-align:top;">:</td><td><div><table><tr><td style="font-weight:bold;vertical-align:top;">session_id_project</td><td style="vertical-align:top;">:</td><td><div>127.0.0.1-a9e257df-7afa-483d-8189-d2cdaa59855e<table><tr><td style="font-weight:bold;vertical-align:top;">comment</td><td style="vertical-align:top;">:</td><td><div></div></td></tr><tr><td style="font-weight:bold;vertical-align:top;">domain</td><td style="vertical-align:top;">:</td><td><div></div></td></tr><tr><td style="font-weight:bold;vertical-align:top;">expires</td><td style="vertical-align:top;">:</td><td><div></div></td></tr><tr><td style="font-weight:bold;vertical-align:top;">httponly</td><td style="vertical-align:top;">:</td><td><div></div></td></tr><tr><td style="font-weight:bold;vertical-align:top;">max-age</td><td style="vertical-align:top;">:</td><td><div></div></td></tr><tr><td style="font-weight:bold;vertical-align:top;">path</td><td style="vertical-align:top;">:</td><td><div>/</div></td></tr><tr><td style="font-weight:bold;vertical-align:top;">secure</td><td style="vertical-align:top;">:</td><td><div></div></td></tr><tr><td style="font-weight:bold;vertical-align:top;">version</td><td style="vertical-align:top;">:</td><td><div></div></td></tr></table></div></td></tr></table></div></td></tr><tr><td style="font-weight:bold;vertical-align:top;">delimiters</td><td style="vertical-align:top;">:</td><td><div><table><tr><td><div>{{</div></td></tr><tr><td><div>}}</div></td></tr></table></div></td></tr><tr><td style="font-weight:bold;vertical-align:top;">files</td><td style="vertical-align:top;">:</td><td><div><table></table></div></td></tr><tr><td style="font-weight:bold;vertical-align:top;">flash</td><td style="vertical-align:top;">:</td><td><div></div></td></tr><tr><td style="font-weight:bold;vertical-align:top;">generic_patterns</td><td style="vertical-align:top;">:</td><td><div><table></table></div></td></tr><tr><td style="font-weight:bold;vertical-align:top;">headers</td><td style="vertical-align:top;">:</td><td><div><table><tr><td style="font-weight:bold;vertical-align:top;">X-Powered-By</td><td style="vertical-align:top;">:</td><td><div>web2py</div></td></tr></table></div></td></tr><tr><td style="font-weight:bold;vertical-align:top;">menu</td><td style="vertical-align:top;">:</td><td><div><table><tr><td><div><table><tr><td><div>Index</div></td></tr><tr><td><div>False</div></td></tr><tr><td><div>/project/meet/index</div></td></tr><tr><td><div><table></table></div></td></tr></table></div></td></tr><tr><td><div><table><tr><td><div>Calendar</div></td></tr><tr><td><div>False</div></td></tr><tr><td><div>/project/meet/mycal</div></td></tr><tr><td><div><table></table></div></td></tr></table></div></td></tr><tr><td><div><table><tr><td><div>email</div></td></tr><tr><td><div>True</div></td></tr><tr><td><div>/project/meet/emailusers</div></td></tr><tr><td><div><table></table></div></td></tr></table></div></td></tr></table></div></td></tr><tr><td style="font-weight:bold;vertical-align:top;">meta</td><td style="vertical-align:top;">:</td><td><div><table><tr><td style="font-weight:bold;vertical-align:top;">author</td><td style="vertical-align:top;">:</td><td><div>Massimo &lt;mdipierro@cs.depaul.edu&gt;</div></td></tr><tr><td style="font-weight:bold;vertical-align:top;">description</td><td style="vertical-align:top;">:</td><td><div></div></td></tr><tr><td style="font-weight:bold;vertical-align:top;">keywords</td><td style="vertical-align:top;">:</td><td><div></div></td></tr></table></div></td></tr><tr><td style="font-weight:bold;vertical-align:top;">models_to_run</td><td style="vertical-align:top;">:</td><td><div><table><tr><td><div>^\\w+\\.py$</div></td></tr><tr><td><div>^meet/\\w+\\.py$</div></td></tr><tr><td><div>^meet/emailusers/\\w+\\.py$</div></td></tr></table></div></td></tr><tr><td style="font-weight:bold;vertical-align:top;">postprocessing</td><td style="vertical-align:top;">:</td><td><div><table></table></div></td></tr><tr><td style="font-weight:bold;vertical-align:top;">session_client</td><td style="vertical-align:top;">:</td><td><div>127.0.0.1</div></td></tr><tr><td style="font-weight:bold;vertical-align:top;">session_cookie_compression_level</td><td style="vertical-align:top;">:</td><td><div>None</div></td></tr><tr><td style="font-weight:bold;vertical-align:top;">session_cookie_expires</td><td style="vertical-align:top;">:</td><td><div>None</div></td></tr><tr><td style="font-weight:bold;vertical-align:top;">session_cookie_key</td><td style="vertical-align:top;">:</td><td><div>None</div></td></tr><tr><td style="font-weight:bold;vertical-align:top;">session_data_name</td><td style="vertical-align:top;">:</td><td><div>session_data_project</div></td></tr><tr><td style="font-weight:bold;vertical-align:top;">session_file</td><td style="vertical-align:top;">:</td><td><div>None</div></td></tr><tr><td style="font-weight:bold;vertical-align:top;">session_filename</td><td style="vertical-align:top;">:</td><td><div>/ug/ug2k13/cse/srikailash.gandebathula/Desktop/web2py/applications/project/sessions/127.0.0.1-a9e257df-7afa-483d-8189-d2cdaa59855e</div></td></tr><tr><td style="font-weight:bold;vertical-align:top;">session_hash</td><td style="vertical-align:top;">:</td><td><div>106f4c22ca06cc343e42b73a0d8492f6</div></td></tr><tr><td style="font-weight:bold;vertical-align:top;">session_id</td><td style="vertical-align:top;">:</td><td><div>127.0.0.1-a9e257df-7afa-483d-8189-d2cdaa59855e</div></td></tr><tr><td style="font-weight:bold;vertical-align:top;">session_id_name</td><td style="vertical-align:top;">:</td><td><div>session_id_project</div></td></tr><tr><td style="font-weight:bold;vertical-align:top;">session_masterapp</td><td style="vertical-align:top;">:</td><td><div>project</div></td></tr><tr><td style="font-weight:bold;vertical-align:top;">session_new</td><td style="vertical-align:top;">:</td><td><div>True</div></td></tr><tr><td style="font-weight:bold;vertical-align:top;">session_storage_type</td><td style="vertical-align:top;">:</td><td><div>file</div></td></tr><tr><td style="font-weight:bold;vertical-align:top;">status</td><td style="vertical-align:top;">:</td><td><div>200</div></td></tr><tr><td style="font-weight:bold;vertical-align:top;">subtitle</td><td style="vertical-align:top;">:</td><td><div>manage time and location</div></td></tr><tr><td style="font-weight:bold;vertical-align:top;">title</td><td style="vertical-align:top;">:</td><td><div>My Appointments</div></td></tr><tr><td style="font-weight:bold;vertical-align:top;">view</td><td style="vertical-align:top;">:</td><td><div>meet/emailusers.html</div></td></tr></table></div>'
tRp151
sS'locals'
p152
(dp153
ssS'traceback'
p154
S'Traceback (most recent call last):\n  File "/ug/ug2k13/cse/srikailash.gandebathula/Desktop/web2py/gluon/restricted.py", line 220, in restricted\n    exec ccode in environment\n  File "/ug/ug2k13/cse/srikailash.gandebathula/Desktop/web2py/applications/project/controllers/meet.py", line 276, in <module>\n  File "/ug/ug2k13/cse/srikailash.gandebathula/Desktop/web2py/gluon/globals.py", line 385, in <lambda>\n    self._caller = lambda f: f()\n  File "/ug/ug2k13/cse/srikailash.gandebathula/Desktop/web2py/applications/project/controllers/meet.py", line 245, in emailusers\n    user=\'%(first_name)s\'%auth.user\nTypeError: format requires a mapping\n'
p155
s.