(dp1
S'output'
p2
S"<type 'exceptions.AttributeError'> 'DAL' object has no attribute 'wde'"
p3
sS'layer'
p4
S'/ug/ug2k13/cse/satyendhra.dasara/Desktop/web2py/applications/project/controllers/meet.py'
p5
sS'code'
p6
S'import os\n\n\ndef first():\n    form = SQLFORM.factory(Field(\'meeting_name\',requires=IS_NOT_EMPTY()))\n    if form.process().accepted:\n        name = form.vars.meeting_name\n\tif name not in DB.tables:\n\t    DB.define_table(name,Field(\'body\',\'text\'),\n\t\t\t    Field(\'user_name\',\'string\'),migrate=True)#,format=lambda r: r.name or \'anonymous\')\n\t    db.define_table(name+\'_\'+\'users\',Field(\'user_name\',\'string\'),migrate=True)#,format=lambda r: r.name or \'anonymous\')\n\tredirect(URL(\'fourth\',vars=dict(name=name)))\n    return dict(form = form)\n\ndef second():\n     name = request.vars.name or redirect(URL(\'first\'))\n     tb = DB[name]\n     txt = DB().select(tb.ALL ,orderby=tb.id)\n     redirect(URL(\'fourth\',vars=dict(name=name)))\n\ndef fourth():\n    name = request.vars.name or redirect(URL(\'first\'))\n    tb = DB[name]\n    print name+\'_\'+\'names\'\n    tb1 = db[name+\'_\'+\'names\']\n    text = DB().select(tb.ALL ,orderby=tb.id)\n    #names = db().select(db.satya_wde_names.ALL,orderby=db.satya_wde_names.id)\n    names = db().select(tb.ALL,orderby=tb.id)\n    form = SQLFORM.factory(Field(\'file\',\'upload\',uploadfolder=os.path.join(request.folder,\'uploads\')),Field(\'user_name\',requires=IS_NOT_EMPTY()))\n    form1 = SQLFORM.factory(Field(\'add_user\',requires=IS_NOT_EMPTY()))\n    if form.process().accepted:\n        response.flash = T("Ur file is uploaded!")\n    if form1.process().accepted:\n\ttb1.insert(user_name=form1.vars.add_user)\n    print form1.vars.add_user\n    return dict(text = text,name=name,names=names,form=form,form1=form1)\n\ndef sixth():\n    name = request.get_vars[\'start\'].split(\'/\')\n    tb = DB[name[0]]\n    j = tb(int(name[1])) or redirect(URL(\'fourth\'))\n    return dict(name=j)\n\ndef seventh():\n    name = request.get_vars[\'start\'].split(\'/\')\n    tb = DB[name[0]]\n    tb.insert(body=name[1],user_name=name[2])\n    text = DB().select(tb.ALL ,orderby=tb.id)\n    name = name[0]\n    return dict(text=text,name=name)\n\ndef eight():\n    name = request.get_vars[\'start\'].split(\'/\')\n    tb = DB[name[0]]\n    txt = DB().select(tb.ALL ,orderby=tb.id)\n    return dict(text=txt,name=name[1])\n\nresponse._vars=response._caller(fourth)\n'
p7
sS'snapshot'
p8
(dp9
S'exception'
p10
(dp11
S'__hash__'
p12
S"<method-wrapper '__hash__' of exceptions.AttributeError object>"
p13
sS'__setattr__'
p14
S"<method-wrapper '__setattr__' of exceptions.AttributeError object>"
p15
sS'__reduce_ex__'
p16
S'<built-in method __reduce_ex__ of exceptions.AttributeError object>'
p17
sS'__getslice__'
p18
S"<method-wrapper '__getslice__' of exceptions.AttributeError object>"
p19
sS'__getitem__'
p20
S"<method-wrapper '__getitem__' of exceptions.AttributeError object>"
p21
sS'__setstate__'
p22
S'<built-in method __setstate__ of exceptions.AttributeError object>'
p23
sS'__reduce__'
p24
S'<built-in method __reduce__ of exceptions.AttributeError object>'
p25
sS'__str__'
p26
S"<method-wrapper '__str__' of exceptions.AttributeError object>"
p27
sS'__format__'
p28
S'<built-in method __format__ of exceptions.AttributeError object>'
p29
sS'__getattribute__'
p30
S"<method-wrapper '__getattribute__' of exceptions.AttributeError object>"
p31
sS'__class__'
p32
S"<type 'exceptions.AttributeError'>"
p33
sS'__unicode__'
p34
S'<built-in method __unicode__ of exceptions.AttributeError object>'
p35
sS'__delattr__'
p36
S"<method-wrapper '__delattr__' of exceptions.AttributeError object>"
p37
sS'__subclasshook__'
p38
S'<built-in method __subclasshook__ of type object>'
p39
sS'__repr__'
p40
S"<method-wrapper '__repr__' of exceptions.AttributeError object>"
p41
sS'args'
p42
S'("\'DAL\' object has no attribute \'wde\'",)'
p43
sS'__dict__'
p44
S'{}'
p45
sS'__sizeof__'
p46
S'<built-in method __sizeof__ of exceptions.AttributeError object>'
p47
sS'__doc__'
p48
S"'Attribute not found.'"
p49
sS'__init__'
p50
S"<method-wrapper '__init__' of exceptions.AttributeError object>"
p51
sS'__new__'
p52
S'<built-in method __new__ of type object>'
p53
ssS'evalue'
p54
S"'DAL' object has no attribute 'wde'"
p55
sS'request'
p56
cgluon.html
XML_unpickle
p57
(S's\x8cg\x00\x00<div><table><tr><td style="font-weight:bold;vertical-align:top;">ajax</td><td style="vertical-align:top;">:</td><td><div>False</div></td></tr><tr><td style="font-weight:bold;vertical-align:top;">application</td><td style="vertical-align:top;">:</td><td><div>project</div></td></tr><tr><td style="font-weight:bold;vertical-align:top;">args</td><td style="vertical-align:top;">:</td><td><div><table></table></div></td></tr><tr><td style="font-weight:bold;vertical-align:top;">cid</td><td style="vertical-align:top;">:</td><td><div>None</div></td></tr><tr><td style="font-weight:bold;vertical-align:top;">client</td><td style="vertical-align:top;">:</td><td><div>127.0.0.1</div></td></tr><tr><td style="font-weight:bold;vertical-align:top;">controller</td><td style="vertical-align:top;">:</td><td><div>meet</div></td></tr><tr><td style="font-weight:bold;vertical-align:top;">cookies</td><td style="vertical-align:top;">:</td><td><div><table><tr><td style="font-weight:bold;vertical-align:top;">session_id_admin</td><td style="vertical-align:top;">:</td><td><div>127.0.0.1-a1e4dca0-494b-45d6-80c3-c6bc77312fcf<table><tr><td style="font-weight:bold;vertical-align:top;">comment</td><td style="vertical-align:top;">:</td><td><div></div></td></tr><tr><td style="font-weight:bold;vertical-align:top;">domain</td><td style="vertical-align:top;">:</td><td><div></div></td></tr><tr><td style="font-weight:bold;vertical-align:top;">expires</td><td style="vertical-align:top;">:</td><td><div></div></td></tr><tr><td style="font-weight:bold;vertical-align:top;">httponly</td><td style="vertical-align:top;">:</td><td><div></div></td></tr><tr><td style="font-weight:bold;vertical-align:top;">max-age</td><td style="vertical-align:top;">:</td><td><div></div></td></tr><tr><td style="font-weight:bold;vertical-align:top;">path</td><td style="vertical-align:top;">:</td><td><div></div></td></tr><tr><td style="font-weight:bold;vertical-align:top;">secure</td><td style="vertical-align:top;">:</td><td><div></div></td></tr><tr><td style="font-weight:bold;vertical-align:top;">version</td><td style="vertical-align:top;">:</td><td><div></div></td></tr></table></div></td></tr><tr><td style="font-weight:bold;vertical-align:top;">session_id_project</td><td style="vertical-align:top;">:</td><td><div>127.0.0.1-f93054e7-dfe4-4ea3-b321-da888dc09d29<table><tr><td style="font-weight:bold;vertical-align:top;">comment</td><td style="vertical-align:top;">:</td><td><div></div></td></tr><tr><td style="font-weight:bold;vertical-align:top;">domain</td><td style="vertical-align:top;">:</td><td><div></div></td></tr><tr><td style="font-weight:bold;vertical-align:top;">expires</td><td style="vertical-align:top;">:</td><td><div></div></td></tr><tr><td style="font-weight:bold;vertical-align:top;">httponly</td><td style="vertical-align:top;">:</td><td><div></div></td></tr><tr><td style="font-weight:bold;vertical-align:top;">max-age</td><td style="vertical-align:top;">:</td><td><div></div></td></tr><tr><td style="font-weight:bold;vertical-align:top;">path</td><td style="vertical-align:top;">:</td><td><div></div></td></tr><tr><td style="font-weight:bold;vertical-align:top;">secure</td><td style="vertical-align:top;">:</td><td><div></div></td></tr><tr><td style="font-weight:bold;vertical-align:top;">version</td><td style="vertical-align:top;">:</td><td><div></div></td></tr></table></div></td></tr><tr><td style="font-weight:bold;vertical-align:top;">session_id_userhomepage</td><td style="vertical-align:top;">:</td><td><div>127.0.0.1-4c01f3fb-d407-4e80-acd6-264fcb0c761f<table><tr><td style="font-weight:bold;vertical-align:top;">comment</td><td style="vertical-align:top;">:</td><td><div></div></td></tr><tr><td style="font-weight:bold;vertical-align:top;">domain</td><td style="vertical-align:top;">:</td><td><div></div></td></tr><tr><td style="font-weight:bold;vertical-align:top;">expires</td><td style="vertical-align:top;">:</td><td><div></div></td></tr><tr><td style="font-weight:bold;vertical-align:top;">httponly</td><td style="vertical-align:top;">:</td><td><div></div></td></tr><tr><td style="font-weight:bold;vertical-align:top;">max-age</td><td style="vertical-align:top;">:</td><td><div></div></td></tr><tr><td style="font-weight:bold;vertical-align:top;">path</td><td style="vertical-align:top;">:</td><td><div></div></td></tr><tr><td style="font-weight:bold;vertical-align:top;">secure</td><td style="vertical-align:top;">:</td><td><div></div></td></tr><tr><td style="font-weight:bold;vertical-align:top;">version</td><td style="vertical-align:top;">:</td><td><div></div></td></tr></table></div></td></tr><tr><td style="font-weight:bold;vertical-align:top;">session_id_videolibrary</td><td style="vertical-align:top;">:</td><td><div>127.0.0.1-35564577-0d56-4d60-acc1-527aa7e49e26<table><tr><td style="font-weight:bold;vertical-align:top;">comment</td><td style="vertical-align:top;">:</td><td><div></div></td></tr><tr><td style="font-weight:bold;vertical-align:top;">domain</td><td style="vertical-align:top;">:</td><td><div></div></td></tr><tr><td style="font-weight:bold;vertical-align:top;">expires</td><td style="vertical-align:top;">:</td><td><div></div></td></tr><tr><td style="font-weight:bold;vertical-align:top;">httponly</td><td style="vertical-align:top;">:</td><td><div></div></td></tr><tr><td style="font-weight:bold;vertical-align:top;">max-age</td><td style="vertical-align:top;">:</td><td><div></div></td></tr><tr><td style="font-weight:bold;vertical-align:top;">path</td><td style="vertical-align:top;">:</td><td><div></div></td></tr><tr><td style="font-weight:bold;vertical-align:top;">secure</td><td style="vertical-align:top;">:</td><td><div></div></td></tr><tr><td style="font-weight:bold;vertical-align:top;">version</td><td style="vertical-align:top;">:</td><td><div></div></td></tr></table></div></td></tr><tr><td style="font-weight:bold;vertical-align:top;">session_id_welcome</td><td style="vertical-align:top;">:</td><td><div>127.0.0.1-309a3c09-5040-4068-9c93-7e38682a10fe<table><tr><td style="font-weight:bold;vertical-align:top;">comment</td><td style="vertical-align:top;">:</td><td><div></div></td></tr><tr><td style="font-weight:bold;vertical-align:top;">domain</td><td style="vertical-align:top;">:</td><td><div></div></td></tr><tr><td style="font-weight:bold;vertical-align:top;">expires</td><td style="vertical-align:top;">:</td><td><div></div></td></tr><tr><td style="font-weight:bold;vertical-align:top;">httponly</td><td style="vertical-align:top;">:</td><td><div></div></td></tr><tr><td style="font-weight:bold;vertical-align:top;">max-age</td><td style="vertical-align:top;">:</td><td><div></div></td></tr><tr><td style="font-weight:bold;vertical-align:top;">path</td><td style="vertical-align:top;">:</td><td><div></div></td></tr><tr><td style="font-weight:bold;vertical-align:top;">secure</td><td style="vertical-align:top;">:</td><td><div></div></td></tr><tr><td style="font-weight:bold;vertical-align:top;">version</td><td style="vertical-align:top;">:</td><td><div></div></td></tr></table></div></td></tr></table></div></td></tr><tr><td style="font-weight:bold;vertical-align:top;">env</td><td style="vertical-align:top;">:</td><td><div><table><tr><td style="font-weight:bold;vertical-align:top;">HTTP_ACCEPT</td><td style="vertical-align:top;">:</td><td><div>text/html,application/xhtml+xml,application/xml;q=0.9,*/*;q=0.8</div></td></tr><tr><td style="font-weight:bold;vertical-align:top;">HTTP_ACCEPT_ENCODING</td><td style="vertical-align:top;">:</td><td><div>gzip, deflate</div></td></tr><tr><td style="font-weight:bold;vertical-align:top;">HTTP_ACCEPT_LANGUAGE</td><td style="vertical-align:top;">:</td><td><div>en-US,en;q=0.5</div></td></tr><tr><td style="font-weight:bold;vertical-align:top;">HTTP_CACHE_CONTROL</td><td style="vertical-align:top;">:</td><td><div>max-age=0</div></td></tr><tr><td style="font-weight:bold;vertical-align:top;">HTTP_CONNECTION</td><td style="vertical-align:top;">:</td><td><div>keep-alive</div></td></tr><tr><td style="font-weight:bold;vertical-align:top;">HTTP_COOKIE</td><td style="vertical-align:top;">:</td><td><div>session_id_welcome=127.0.0.1-309a3c09-5040-4068-9c93-7e38682a10fe; session_id_userhomepage=127.0.0.1-4c01f3fb-d407-4e80-acd6-264fcb0c761f; session_id_project=127.0.0.1-f93054e7-dfe4-4ea3-b321-da888dc09d29; session_id_admin=127.0.0.1-a1e4dca0-494b-45d6-80c3-c6bc77312fcf; session_id_videolibrary=127.0.0.1-35564577-0d56-4d60-acc1-527aa7e49e26</div></td></tr><tr><td style="font-weight:bold;vertical-align:top;">HTTP_HOST</td><td style="vertical-align:top;">:</td><td><div>127.0.0.1:8000</div></td></tr><tr><td style="font-weight:bold;vertical-align:top;">HTTP_REFERER</td><td style="vertical-align:top;">:</td><td><div>http://127.0.0.1:8000/project/meet/first</div></td></tr><tr><td style="font-weight:bold;vertical-align:top;">HTTP_USER_AGENT</td><td style="vertical-align:top;">:</td><td><div>Mozilla/5.0 (X11; Linux i686; rv:28.0) Gecko/20100101 Firefox/28.0</div></td></tr><tr><td style="font-weight:bold;vertical-align:top;">PATH_INFO</td><td style="vertical-align:top;">:</td><td><div>/project/meet/fourth</div></td></tr><tr><td style="font-weight:bold;vertical-align:top;">QUERY_STRING</td><td style="vertical-align:top;">:</td><td><div>name=wde</div></td></tr><tr><td style="font-weight:bold;vertical-align:top;">REMOTE_ADDR</td><td style="vertical-align:top;">:</td><td><div>127.0.0.1</div></td></tr><tr><td style="font-weight:bold;vertical-align:top;">REMOTE_PORT</td><td style="vertical-align:top;">:</td><td><div>39081</div></td></tr><tr><td style="font-weight:bold;vertical-align:top;">REQUEST_METHOD</td><td style="vertical-align:top;">:</td><td><div>GET</div></td></tr><tr><td style="font-weight:bold;vertical-align:top;">SCRIPT_NAME</td><td style="vertical-align:top;">:</td><td><div></div></td></tr><tr><td style="font-weight:bold;vertical-align:top;">SERVER_NAME</td><td style="vertical-align:top;">:</td><td><div>cr13007</div></td></tr><tr><td style="font-weight:bold;vertical-align:top;">SERVER_PORT</td><td style="vertical-align:top;">:</td><td><div>8000</div></td></tr><tr><td style="font-weight:bold;vertical-align:top;">SERVER_PROTOCOL</td><td style="vertical-align:top;">:</td><td><div>HTTP/1.1</div></td></tr><tr><td style="font-weight:bold;vertical-align:top;">SERVER_SOFTWARE</td><td style="vertical-align:top;">:</td><td><div>Rocket 1.2.6</div></td></tr><tr><td style="font-weight:bold;vertical-align:top;">app_folders</td><td style="vertical-align:top;">:</td><td><div>set([&#x27;/ug/ug2k13/cse/satyendhra.dasara/Desktop/web2py/applications/project/&#x27;, &#x27;/ug/ug2k13/cse/satyendhra.dasara/Desktop/web2py/applications/admin/&#x27;, &#x27;/ug/ug2k13/cse/satyendhra.dasara/Desktop/web2py/applications/welcome/&#x27;, &#x27;/ug/ug2k13/cse/satyendhra.dasara/Desktop/web2py/applications/userhomepage/&#x27;])</div></td></tr><tr><td style="font-weight:bold;vertical-align:top;">applications_parent</td><td style="vertical-align:top;">:</td><td><div>/ug/ug2k13/cse/satyendhra.dasara/Desktop/web2py</div></td></tr><tr><td style="font-weight:bold;vertical-align:top;">cmd_args</td><td style="vertical-align:top;">:</td><td><div><table></table></div></td></tr><tr><td style="font-weight:bold;vertical-align:top;">cmd_options</td><td style="vertical-align:top;">:</td><td><div>&lt;Values at 0x9964d4c: {&#x27;verbose&#x27;: False, &#x27;ip&#x27;: &#x27;127.0.0.1&#x27;, &#x27;debuglevel&#x27;: 30, &#x27;with_scheduler&#x27;: False, &#x27;ips&#x27;: [&#x27;::1&#x27;], &#x27;shutdown_timeout&#x27;: 5, &#x27;taskbar&#x27;: False, &#x27;with_coverage&#x27;: False, &#x27;port&#x27;: 8000, &#x27;maxthreads&#x27;: None, &#x27;softcron&#x27;: False, &#x27;server_name&#x27;: &#x27;cr13007&#x27;, &#x27;bpython&#x27;: False, &#x27;nogui&#x27;: False, &#x27;pid_filename&#x27;: &#x27;httpserver.pid&#x27;, &#x27;extcron&#x27;: False, &#x27;runcron&#x27;: False, &#x27;run_system_tests&#x27;: False, &#x27;test&#x27;: None, &#x27;folder&#x27;: &#x27;/ug/ug2k13/cse/satyendhra.dasara/Desktop/web2py&#x27;, &#x27;config&#x27;: &#x27;&#x27;, &#x27;minthreads&#x27;: None, &#x27;shell&#x27;: None, &#x27;run&#x27;: &#x27;&#x27;, &#x27;log_filename&#x27;: &#x27;httpserver.log&#x27;, &#x27;profiler_dir&#x27;: None, &#x27;args&#x27;: [&#x27;&#x27;], &#x27;socket_timeout&#x27;: 5, &#x27;ssl_ca_certificate&#x27;: None, &#x27;scheduler&#x27;: None, &#x27;interfaces&#x27;: None, &#x27;ssl_private_key&#x27;: &#x27;&#x27;, &#x27;scheduler_groups&#x27;: None, &#x27;password&#x27;: &#x27;&lt;ask&gt;&#x27;, &#x27;request_queue_size&#x27;: 5, &#x27;ssl_certificate&#x27;: &#x27;&#x27;, &#x27;cronjob&#x27;: False, &#x27;numthreads&#x27;: None, &#x27;quiet&#x27;: False, &#x27;import_models&#x27;: False, &#x27;timeout&#x27;: 10, &#x27;plain&#x27;: False, &#x27;nobanner&#x27;: False}&gt;</div></td></tr><tr><td style="font-weight:bold;vertical-align:top;">db_sessions</td><td style="vertical-align:top;">:</td><td><div>set([])</div></td></tr><tr><td style="font-weight:bold;vertical-align:top;">debugging</td><td style="vertical-align:top;">:</td><td><div>False</div></td></tr><tr><td style="font-weight:bold;vertical-align:top;">gluon_parent</td><td style="vertical-align:top;">:</td><td><div>/ug/ug2k13/cse/satyendhra.dasara/Desktop/web2py</div></td></tr><tr><td style="font-weight:bold;vertical-align:top;">http_accept</td><td style="vertical-align:top;">:</td><td><div>text/html,application/xhtml+xml,application/xml;q=0.9,*/*;q=0.8</div></td></tr><tr><td style="font-weight:bold;vertical-align:top;">http_accept_encoding</td><td style="vertical-align:top;">:</td><td><div>gzip, deflate</div></td></tr><tr><td style="font-weight:bold;vertical-align:top;">http_accept_language</td><td style="vertical-align:top;">:</td><td><div>en-US,en;q=0.5</div></td></tr><tr><td style="font-weight:bold;vertical-align:top;">http_cache_control</td><td style="vertical-align:top;">:</td><td><div>max-age=0</div></td></tr><tr><td style="font-weight:bold;vertical-align:top;">http_connection</td><td style="vertical-align:top;">:</td><td><div>keep-alive</div></td></tr><tr><td style="font-weight:bold;vertical-align:top;">http_cookie</td><td style="vertical-align:top;">:</td><td><div>session_id_welcome=127.0.0.1-309a3c09-5040-4068-9c93-7e38682a10fe; session_id_userhomepage=127.0.0.1-4c01f3fb-d407-4e80-acd6-264fcb0c761f; session_id_project=127.0.0.1-f93054e7-dfe4-4ea3-b321-da888dc09d29; session_id_admin=127.0.0.1-a1e4dca0-494b-45d6-80c3-c6bc77312fcf; session_id_videolibrary=127.0.0.1-35564577-0d56-4d60-acc1-527aa7e49e26</div></td></tr><tr><td style="font-weight:bold;vertical-align:top;">http_host</td><td style="vertical-align:top;">:</td><td><div>127.0.0.1:8000</div></td></tr><tr><td style="font-weight:bold;vertical-align:top;">http_referer</td><td style="vertical-align:top;">:</td><td><div>http://127.0.0.1:8000/project/meet/first</div></td></tr><tr><td style="font-weight:bold;vertical-align:top;">http_user_agent</td><td style="vertical-align:top;">:</td><td><div>Mozilla/5.0 (X11; Linux i686; rv:28.0) Gecko/20100101 Firefox/28.0</div></td></tr><tr><td style="font-weight:bold;vertical-align:top;">is_jython</td><td style="vertical-align:top;">:</td><td><div>False</div></td></tr><tr><td style="font-weight:bold;vertical-align:top;">is_pypy</td><td style="vertical-align:top;">:</td><td><div>False</div></td></tr><tr><td style="font-weight:bold;vertical-align:top;">is_source</td><td style="vertical-align:top;">:</td><td><div>True</div></td></tr><tr><td style="font-weight:bold;vertical-align:top;">local_hosts</td><td style="vertical-align:top;">:</td><td><div><table><tr><td><div>::ffff:127.0.0.1</div></td></tr><tr><td><div>::1</div></td></tr><tr><td><div>cr13007</div></td></tr><tr><td><div>localhost6.localdomain6</div></td></tr><tr><td><div>10.3.8.233</div></td></tr><tr><td><div>127.0.0.1</div></td></tr></table></div></td></tr><tr><td style="font-weight:bold;vertical-align:top;">path_info</td><td style="vertical-align:top;">:</td><td><div>/project/meet/fourth</div></td></tr><tr><td style="font-weight:bold;vertical-align:top;">query_string</td><td style="vertical-align:top;">:</td><td><div>name=wde</div></td></tr><tr><td style="font-weight:bold;vertical-align:top;">remote_addr</td><td style="vertical-align:top;">:</td><td><div>127.0.0.1</div></td></tr><tr><td style="font-weight:bold;vertical-align:top;">remote_port</td><td style="vertical-align:top;">:</td><td><div>39081</div></td></tr><tr><td style="font-weight:bold;vertical-align:top;">request_method</td><td style="vertical-align:top;">:</td><td><div>GET</div></td></tr><tr><td style="font-weight:bold;vertical-align:top;">request_uri</td><td style="vertical-align:top;">:</td><td><div>/project/meet/fourth?name=wde</div></td></tr><tr><td style="font-weight:bold;vertical-align:top;">script_name</td><td style="vertical-align:top;">:</td><td><div></div></td></tr><tr><td style="font-weight:bold;vertical-align:top;">server_name</td><td style="vertical-align:top;">:</td><td><div>cr13007</div></td></tr><tr><td style="font-weight:bold;vertical-align:top;">server_port</td><td style="vertical-align:top;">:</td><td><div>8000</div></td></tr><tr><td style="font-weight:bold;vertical-align:top;">server_protocol</td><td style="vertical-align:top;">:</td><td><div>HTTP/1.1</div></td></tr><tr><td style="font-weight:bold;vertical-align:top;">server_software</td><td style="vertical-align:top;">:</td><td><div>Rocket 1.2.6</div></td></tr><tr><td style="font-weight:bold;vertical-align:top;">web2py_path</td><td style="vertical-align:top;">:</td><td><div>/ug/ug2k13/cse/satyendhra.dasara/Desktop/web2py</div></td></tr><tr><td style="font-weight:bold;vertical-align:top;">web2py_version</td><td style="vertical-align:top;">:</td><td><div>2.9.4-stable+timestamp.2014.03.05.04.44.09</div></td></tr><tr><td style="font-weight:bold;vertical-align:top;">wsgi.errors</td><td style="vertical-align:top;">:</td><td><div>&lt;open file &#x27;&lt;stderr&gt;&#x27;, mode &#x27;w&#x27; at 0xb77650d0&gt;</div></td></tr><tr><td style="font-weight:bold;vertical-align:top;">wsgi.file_wrapper</td><td style="vertical-align:top;">:</td><td><div>&lt;class wsgiref.util.FileWrapper at 0x9925e6c&gt;</div></td></tr><tr><td style="font-weight:bold;vertical-align:top;">wsgi.input</td><td style="vertical-align:top;">:</td><td><div>&lt;socket._fileobject object at 0xaee2f82c&gt;</div></td></tr><tr><td style="font-weight:bold;vertical-align:top;">wsgi.multiprocess</td><td style="vertical-align:top;">:</td><td><div>False</div></td></tr><tr><td style="font-weight:bold;vertical-align:top;">wsgi.multithread</td><td style="vertical-align:top;">:</td><td><div>True</div></td></tr><tr><td style="font-weight:bold;vertical-align:top;">wsgi.run_once</td><td style="vertical-align:top;">:</td><td><div>False</div></td></tr><tr><td style="font-weight:bold;vertical-align:top;">wsgi.url_scheme</td><td style="vertical-align:top;">:</td><td><div>http</div></td></tr><tr><td style="font-weight:bold;vertical-align:top;">wsgi.version</td><td style="vertical-align:top;">:</td><td><div><table><tr><td><div>1</div></td></tr><tr><td><div>0</div></td></tr></table></div></td></tr><tr><td style="font-weight:bold;vertical-align:top;">wsgi_errors</td><td style="vertical-align:top;">:</td><td><div>&lt;open file &#x27;&lt;stderr&gt;&#x27;, mode &#x27;w&#x27; at 0xb77650d0&gt;</div></td></tr><tr><td style="font-weight:bold;vertical-align:top;">wsgi_file_wrapper</td><td style="vertical-align:top;">:</td><td><div>&lt;class wsgiref.util.FileWrapper at 0x9925e6c&gt;</div></td></tr><tr><td style="font-weight:bold;vertical-align:top;">wsgi_input</td><td style="vertical-align:top;">:</td><td><div>&lt;socket._fileobject object at 0xaee2f82c&gt;</div></td></tr><tr><td style="font-weight:bold;vertical-align:top;">wsgi_multiprocess</td><td style="vertical-align:top;">:</td><td><div>False</div></td></tr><tr><td style="font-weight:bold;vertical-align:top;">wsgi_multithread</td><td style="vertical-align:top;">:</td><td><div>True</div></td></tr><tr><td style="font-weight:bold;vertical-align:top;">wsgi_run_once</td><td style="vertical-align:top;">:</td><td><div>False</div></td></tr><tr><td style="font-weight:bold;vertical-align:top;">wsgi_url_scheme</td><td style="vertical-align:top;">:</td><td><div>http</div></td></tr><tr><td style="font-weight:bold;vertical-align:top;">wsgi_version</td><td style="vertical-align:top;">:</td><td><div><table><tr><td><div>1</div></td></tr><tr><td><div>0</div></td></tr></table></div></td></tr></table></div></td></tr><tr><td style="font-weight:bold;vertical-align:top;">extension</td><td style="vertical-align:top;">:</td><td><div>html</div></td></tr><tr><td style="font-weight:bold;vertical-align:top;">folder</td><td style="vertical-align:top;">:</td><td><div>/ug/ug2k13/cse/satyendhra.dasara/Desktop/web2py/applications/project/</div></td></tr><tr><td style="font-weight:bold;vertical-align:top;">function</td><td style="vertical-align:top;">:</td><td><div>fourth</div></td></tr><tr><td style="font-weight:bold;vertical-align:top;">global_settings</td><td style="vertical-align:top;">:</td><td><div><table><tr><td style="font-weight:bold;vertical-align:top;">app_folders</td><td style="vertical-align:top;">:</td><td><div>set([&#x27;/ug/ug2k13/cse/satyendhra.dasara/Desktop/web2py/applications/project/&#x27;, &#x27;/ug/ug2k13/cse/satyendhra.dasara/Desktop/web2py/applications/admin/&#x27;, &#x27;/ug/ug2k13/cse/satyendhra.dasara/Desktop/web2py/applications/welcome/&#x27;, &#x27;/ug/ug2k13/cse/satyendhra.dasara/Desktop/web2py/applications/userhomepage/&#x27;])</div></td></tr><tr><td style="font-weight:bold;vertical-align:top;">applications_parent</td><td style="vertical-align:top;">:</td><td><div>/ug/ug2k13/cse/satyendhra.dasara/Desktop/web2py</div></td></tr><tr><td style="font-weight:bold;vertical-align:top;">cmd_args</td><td style="vertical-align:top;">:</td><td><div><table></table></div></td></tr><tr><td style="font-weight:bold;vertical-align:top;">cmd_options</td><td style="vertical-align:top;">:</td><td><div>&lt;Values at 0x9964d4c: {&#x27;verbose&#x27;: False, &#x27;ip&#x27;: &#x27;127.0.0.1&#x27;, &#x27;debuglevel&#x27;: 30, &#x27;with_scheduler&#x27;: False, &#x27;ips&#x27;: [&#x27;::1&#x27;], &#x27;shutdown_timeout&#x27;: 5, &#x27;taskbar&#x27;: False, &#x27;with_coverage&#x27;: False, &#x27;port&#x27;: 8000, &#x27;maxthreads&#x27;: None, &#x27;softcron&#x27;: False, &#x27;server_name&#x27;: &#x27;cr13007&#x27;, &#x27;bpython&#x27;: False, &#x27;nogui&#x27;: False, &#x27;pid_filename&#x27;: &#x27;httpserver.pid&#x27;, &#x27;extcron&#x27;: False, &#x27;runcron&#x27;: False, &#x27;run_system_tests&#x27;: False, &#x27;test&#x27;: None, &#x27;folder&#x27;: &#x27;/ug/ug2k13/cse/satyendhra.dasara/Desktop/web2py&#x27;, &#x27;config&#x27;: &#x27;&#x27;, &#x27;minthreads&#x27;: None, &#x27;shell&#x27;: None, &#x27;run&#x27;: &#x27;&#x27;, &#x27;log_filename&#x27;: &#x27;httpserver.log&#x27;, &#x27;profiler_dir&#x27;: None, &#x27;args&#x27;: [&#x27;&#x27;], &#x27;socket_timeout&#x27;: 5, &#x27;ssl_ca_certificate&#x27;: None, &#x27;scheduler&#x27;: None, &#x27;interfaces&#x27;: None, &#x27;ssl_private_key&#x27;: &#x27;&#x27;, &#x27;scheduler_groups&#x27;: None, &#x27;password&#x27;: &#x27;&lt;ask&gt;&#x27;, &#x27;request_queue_size&#x27;: 5, &#x27;ssl_certificate&#x27;: &#x27;&#x27;, &#x27;cronjob&#x27;: False, &#x27;numthreads&#x27;: None, &#x27;quiet&#x27;: False, &#x27;import_models&#x27;: False, &#x27;timeout&#x27;: 10, &#x27;plain&#x27;: False, &#x27;nobanner&#x27;: False}&gt;</div></td></tr><tr><td style="font-weight:bold;vertical-align:top;">db_sessions</td><td style="vertical-align:top;">:</td><td><div>set([])</div></td></tr><tr><td style="font-weight:bold;vertical-align:top;">debugging</td><td style="vertical-align:top;">:</td><td><div>False</div></td></tr><tr><td style="font-weight:bold;vertical-align:top;">gluon_parent</td><td style="vertical-align:top;">:</td><td><div>/ug/ug2k13/cse/satyendhra.dasara/Desktop/web2py</div></td></tr><tr><td style="font-weight:bold;vertical-align:top;">is_jython</td><td style="vertical-align:top;">:</td><td><div>False</div></td></tr><tr><td style="font-weight:bold;vertical-align:top;">is_pypy</td><td style="vertical-align:top;">:</td><td><div>False</div></td></tr><tr><td style="font-weight:bold;vertical-align:top;">is_source</td><td style="vertical-align:top;">:</td><td><div>True</div></td></tr><tr><td style="font-weight:bold;vertical-align:top;">local_hosts</td><td style="vertical-align:top;">:</td><td><div><table><tr><td><div>::ffff:127.0.0.1</div></td></tr><tr><td><div>::1</div></td></tr><tr><td><div>cr13007</div></td></tr><tr><td><div>localhost6.localdomain6</div></td></tr><tr><td><div>10.3.8.233</div></td></tr><tr><td><div>127.0.0.1</div></td></tr></table></div></td></tr><tr><td style="font-weight:bold;vertical-align:top;">web2py_version</td><td style="vertical-align:top;">:</td><td><div>2.9.4-stable+timestamp.2014.03.05.04.44.09</div></td></tr></table></div></td></tr><tr><td style="font-weight:bold;vertical-align:top;">is_https</td><td style="vertical-align:top;">:</td><td><div>False</div></td></tr><tr><td style="font-weight:bold;vertical-align:top;">is_local</td><td style="vertical-align:top;">:</td><td><div>True</div></td></tr><tr><td style="font-weight:bold;vertical-align:top;">is_restful</td><td style="vertical-align:top;">:</td><td><div>False</div></td></tr><tr><td style="font-weight:bold;vertical-align:top;">now</td><td style="vertical-align:top;">:</td><td><div>datetime.datetime(2014, 4, 13, 10, 41, 12, 492120)</div></td></tr><tr><td style="font-weight:bold;vertical-align:top;">raw_args</td><td style="vertical-align:top;">:</td><td><div></div></td></tr><tr><td style="font-weight:bold;vertical-align:top;">raw_extension</td><td style="vertical-align:top;">:</td><td><div>None</div></td></tr><tr><td style="font-weight:bold;vertical-align:top;">url</td><td style="vertical-align:top;">:</td><td><div>/project/meet/fourth</div></td></tr><tr><td style="font-weight:bold;vertical-align:top;">utcnow</td><td style="vertical-align:top;">:</td><td><div>datetime.datetime(2014, 4, 13, 5, 11, 12, 492150)</div></td></tr><tr><td style="font-weight:bold;vertical-align:top;">uuid</td><td style="vertical-align:top;">:</td><td><div>project/127.0.0.1.2014-04-13.10-41-12.bf246fa4-c3d7-4b85-ae8b-c6d9791ac99d</div></td></tr><tr><td style="font-weight:bold;vertical-align:top;">wsgi</td><td style="vertical-align:top;">:</td><td><div>&lt;gluon.main.LazyWSGI object at 0xaf7b5d0c&gt;</div></td></tr></table></div>'
tRp58
sS'frames'
p59
(lp60
(dp61
S'file'
p62
S'/ug/ug2k13/cse/satyendhra.dasara/Desktop/web2py/gluon/restricted.py'
p63
sS'dump'
p64
(dp65
S'environment'
p66
S"{'A': <class 'gluon.html.A'>, 'ANY_OF': <class 'gluon.validators.ANY_OF'>, 'Auth': <class 'gluon.tools.Auth'>, 'B': <class 'gluon.html.B'>, 'BEAUTIFY': <class 'gluon.html.BEAUTIFY'>, 'BODY': <class 'gluon.html.BODY'>, 'BR': <class 'gluon.html.BR'>, 'BUTTON': <class 'gluon.html.BUTTON'>, 'CAT': <class 'gluon.html.CAT'>, 'CENTER': <class 'gluon.html.CENTER'>, ...}"
p67
sS'ccode'
p68
S'<code object <module> at 0xaf7c0a40, file "/ug/u...pplications/project/controllers/meet.py", line 1>'
p69
ssS'lnum'
p70
I217
sS'lines'
p71
(dp72
I212
S'    try:'
p73
sI213
S'        if isinstance(code, types.CodeType):'
p74
sI214
S'            ccode = code'
p75
sI215
S'        else:'
p76
sI216
S'            ccode = compile2(code, layer)'
p77
sI217
S'        exec ccode in environment'
p78
sI218
S'    except HTTP:'
p79
sI219
S'        raise'
p80
sI220
S'    except RestrictedError:'
p81
sI221
S'        # do not encapsulate (obfuscate) the original RestrictedError'
p82
ssS'call'
p83
S"(code='import os\\n\\n\\ndef first():\\n    form = SQLFORM.fact...ame[1])\\n\\nresponse._vars=response._caller(fourth)\\n', environment={'A': <class 'gluon.html.A'>, 'ANY_OF': <class 'gluon.validators.ANY_OF'>, 'Auth': <class 'gluon.tools.Auth'>, 'B': <class 'gluon.html.B'>, 'BEAUTIFY': <class 'gluon.html.BEAUTIFY'>, 'BODY': <class 'gluon.html.BODY'>, 'BR': <class 'gluon.html.BR'>, 'BUTTON': <class 'gluon.html.BUTTON'>, 'CAT': <class 'gluon.html.CAT'>, 'CENTER': <class 'gluon.html.CENTER'>, ...}, layer='/ug/ug2k13/cse/satyendhra.dasara/Desktop/web2py/applications/project/controllers/meet.py')"
p84
sS'func'
p85
S'restricted'
p86
sa(dp87
g62
S'/ug/ug2k13/cse/satyendhra.dasara/Desktop/web2py/applications/project/controllers/meet.py'
p88
sg64
(dp89
sg70
I58
sg71
(dp90
I47
S'    tb.insert(body=name[1],user_name=name[2])'
p91
sI48
S'    text = DB().select(tb.ALL ,orderby=tb.id)'
p92
sI49
S'    name = name[0]'
p93
sI50
S'    return dict(text=text,name=name)'
p94
sI51
S''
sI52
S'def eight():'
p95
sI53
S"    name = request.get_vars['start'].split('/')"
p96
sI54
S'    tb = DB[name[0]]'
p97
sI55
S'    txt = DB().select(tb.ALL ,orderby=tb.id)'
p98
sI56
S'    return dict(text=txt,name=name[1])'
p99
ssg83
S'()'
p100
sg85
S'<module>'
p101
sa(dp102
g62
S'/ug/ug2k13/cse/satyendhra.dasara/Desktop/web2py/gluon/globals.py'
p103
sg64
(dp104
S'self'
p105
S'undefined'
p106
sS'f'
S'<function fourth>'
p107
ssg70
I385
sg71
(dp108
I384
S'        self._vars = None'
p109
sI385
S'        self._caller = lambda f: f()'
p110
sI386
S'        self._view_environment = None'
p111
sI387
S'        self._custom_commit = None'
p112
sI388
S'        self._custom_rollback = None'
p113
sI389
S''
sI380
S'        self.menu = []             # used by the default view layout'
p114
sI381
S'        self.files = []            # used by web2py_ajax.html'
p115
sI382
S'        self.generic_patterns = []  # patterns to allow generic views'
p116
sI383
S"        self.delimiters = ('{{', '}}')"
p117
ssg83
S'(f=<function fourth>)'
p118
sg85
S'<lambda>'
p119
sa(dp120
g62
S'/ug/ug2k13/cse/satyendhra.dasara/Desktop/web2py/applications/project/controllers/meet.py'
p121
sg64
(dp122
S'orderby'
p123
g106
sS').select'
p124
g106
sS'names'
p125
g106
sS'global db'
p126
S'<DAL uri="sqlite://storage.sqlite">'
p127
sS'tb.ALL'
p128
S'<gluon.dal.SQLALL object>'
p129
sS'tb'
p130
S'<Table wde (id,body,user_name)>'
p131
sS'tb.id'
p132
S'<gluon.dal.Field object>'
p133
ssg70
I28
sg71
(dp134
I32
S'        response.flash = T("Ur file is uploaded!")'
p135
sI23
S'    tb = DB[name]'
p136
sI24
S"    print name+'_'+'names'"
p137
sI25
S"    tb1 = db[name+'_'+'names']"
p138
sI26
S'    text = DB().select(tb.ALL ,orderby=tb.id)'
p139
sI27
S'    #names = db().select(db.satya_wde_names.ALL,orderby=db.satya_wde_names.id)'
p140
sI28
S'    names = db().select(tb.ALL,orderby=tb.id)'
p141
sI29
S"    form = SQLFORM.factory(Field('file','upload',uploadfolder=os.path.join(request.folder,'uploads')),Field('user_name',requires=IS_NOT_EMPTY()))"
p142
sI30
S"    form1 = SQLFORM.factory(Field('add_user',requires=IS_NOT_EMPTY()))"
p143
sI31
S'    if form.process().accepted:'
p144
ssg83
S'()'
p145
sg85
S'fourth'
p146
sa(dp147
g62
S'/ug/ug2k13/cse/satyendhra.dasara/Desktop/web2py/gluon/dal.py'
p148
sg64
(dp149
S'self.query'
p150
S'None'
p151
sS'adapter.select'
p152
S'<bound method SQLiteAdapter.select of <gluon.dal.SQLiteAdapter object>>'
p153
sS'fields'
p154
S'[<gluon.dal.Field object>, <gluon.dal.Field object>, <gluon.dal.Field object>]'
p155
sS'adapter'
p156
S'<gluon.dal.SQLiteAdapter object>'
p157
sS'attributes'
p158
S"{'orderby': <gluon.dal.Field object>}"
p159
sS'self'
p160
S'<Set None>'
p161
ssg70
I10485
sg71
(dp162
I10480
S"                                    attributes.get('join',None),"
p163
sI10481
S"                                    attributes.get('left',None),"
p164
sI10482
S"                                    attributes.get('orderby',None),"
p165
sI10483
S"                                    attributes.get('groupby',None))"
p166
sI10484
S'        fields = adapter.expand_all(fields, tablenames)'
p167
sI10485
S'        return adapter.select(self.query,fields,attributes)'
p168
sI10486
S''
sI10487
S'    def nested_select(self,*fields,**attributes):'
p169
sI10488
S'        return Expression(self.db,self._select(*fields,**attributes))'
p170
sI10489
S''
ssg83
S"(self=<Set None>, *fields=[<gluon.dal.Field object>, <gluon.dal.Field object>, <gluon.dal.Field object>], **attributes={'orderby': <gluon.dal.Field object>})"
p171
sg85
S'select'
p172
sa(dp173
g62
S'/ug/ug2k13/cse/satyendhra.dasara/Desktop/web2py/gluon/dal.py'
p174
sg64
(dp175
S'fields'
p176
S'[<gluon.dal.Field object>, <gluon.dal.Field object>, <gluon.dal.Field object>]'
p177
sS'self'
p178
S'<gluon.dal.SQLiteAdapter object>'
p179
sS').select'
p180
S'<bound method SQLiteAdapter.select of <gluon.dal.SQLiteAdapter object>>'
p181
sS'attributes'
p182
S"{'orderby': <gluon.dal.Field object>}"
p183
sS'global SQLiteAdapter'
p184
S"<class 'gluon.dal.SQLiteAdapter'>"
p185
sS'query'
p186
S'None'
p187
sS'builtinsuper'
p188
S"<type 'super'>"
p189
ssg70
I2458
sg71
(dp190
I2453
S'        Note that the entire database, rather than one record, is locked'
p191
sI2454
S'        (it will be locked eventually anyway by the following UPDATE).'
p192
sI2455
S'        """'
p193
sI2456
S"        if attributes.get('for_update', False) and not 'cache' in attributes:"
p194
sI2457
S"            self.execute('BEGIN IMMEDIATE TRANSACTION;')"
p195
sI2458
S'        return super(SQLiteAdapter, self).select(query, fields, attributes)'
p196
sI2459
S''
sI2460
S'class SpatiaLiteAdapter(SQLiteAdapter):'
p197
sI2461
S"    drivers = ('sqlite3','sqlite2')"
p198
sI2462
S''
ssg83
S"(self=<gluon.dal.SQLiteAdapter object>, query=None, fields=[<gluon.dal.Field object>, <gluon.dal.Field object>, <gluon.dal.Field object>], attributes={'orderby': <gluon.dal.Field object>})"
p199
sg85
g172
sa(dp200
g62
S'/ug/ug2k13/cse/satyendhra.dasara/Desktop/web2py/gluon/dal.py'
p201
sg64
(dp202
S'self._select'
p203
S'<bound method SQLiteAdapter._select of <gluon.dal.SQLiteAdapter object>>'
p204
sS'fields'
p205
S'[<gluon.dal.Field object>, <gluon.dal.Field object>, <gluon.dal.Field object>]'
p206
sS'self'
p207
S'<gluon.dal.SQLiteAdapter object>'
p208
sS'sql'
p209
g106
sS'query'
p210
S'None'
p211
sS'attributes'
p212
S"{'orderby': <gluon.dal.Field object>}"
p213
ssg70
I1869
sg71
(dp214
I1864
S''
sI1865
S'    def select(self, query, fields, attributes):'
p215
sI1866
S'        """'
p216
sI1867
S'        Always returns a Rows object, possibly empty.'
p217
sI1868
S'        """'
p218
sI1869
S'        sql = self._select(query, fields, attributes)'
p219
sI1870
S"        cache = attributes.get('cache', None)"
p220
sI1871
S"        if cache and attributes.get('cacheable',False):"
p221
sI1872
S"            del attributes['cache']"
p222
sI1873
S'            (cache_model, time_expire) = cache'
p223
ssg83
S"(self=<gluon.dal.SQLiteAdapter object>, query=None, fields=[<gluon.dal.Field object>, <gluon.dal.Field object>, <gluon.dal.Field object>], attributes={'orderby': <gluon.dal.Field object>})"
p224
sg85
g172
sa(dp225
g62
S'/ug/ug2k13/cse/satyendhra.dasara/Desktop/web2py/gluon/dal.py'
p226
sg64
(dp227
S'sql_t'
p228
g106
sS'self'
p229
S'<gluon.dal.SQLiteAdapter object>'
p230
sS'self.table_alias'
p231
S'<bound method SQLiteAdapter.table_alias of <gluon.dal.SQLiteAdapter object>>'
p232
sS'tablenames'
p233
S"['wde']"
p234
sS't'
g106
ssg70
I1805
sg71
(dp235
I1800
S"                sql_t += ' %s %s' % (command,"
p236
sI1801
S"                                     ','.join([t for t in joint]))"
p237
sI1802
S'            for t in joinon:'
p238
sI1803
S"                sql_t += ' %s %s' % (command, t)"
p239
sI1804
S'        else:'
p240
sI1805
S"            sql_t = ', '.join(self.table_alias(t) for t in tablenames)"
p241
sI1806
S'        if groupby:'
p242
sI1807
S'            if isinstance(groupby, (list, tuple)):'
p243
sI1808
S'                groupby = xorify(groupby)'
p244
sI1809
S"            sql_o += ' GROUP BY %s' % self.expand(groupby)"
p245
ssg83
S"(self=<gluon.dal.SQLiteAdapter object>, query=None, fields=[<gluon.dal.Field object>, <gluon.dal.Field object>, <gluon.dal.Field object>], attributes={'orderby': <gluon.dal.Field object>})"
p246
sg85
S'_select'
p247
sa(dp248
g62
S'/ug/ug2k13/cse/satyendhra.dasara/Desktop/web2py/gluon/dal.py'
p249
sg64
(dp250
S'sql_t'
p251
g106
sS'self'
p252
S'<gluon.dal.SQLiteAdapter object>'
p253
sS'self.table_alias'
p254
S'<bound method SQLiteAdapter.table_alias of <gluon.dal.SQLiteAdapter object>>'
p255
sS'tablenames'
p256
g106
sS't'
S"'wde'"
p257
ssg70
I1805
sg71
(dp258
I1800
S"                sql_t += ' %s %s' % (command,"
p259
sI1801
S"                                     ','.join([t for t in joint]))"
p260
sI1802
S'            for t in joinon:'
p261
sI1803
S"                sql_t += ' %s %s' % (command, t)"
p262
sI1804
S'        else:'
p263
sI1805
S"            sql_t = ', '.join(self.table_alias(t) for t in tablenames)"
p264
sI1806
S'        if groupby:'
p265
sI1807
S'            if isinstance(groupby, (list, tuple)):'
p266
sI1808
S'                groupby = xorify(groupby)'
p267
sI1809
S"            sql_o += ' GROUP BY %s' % self.expand(groupby)"
p268
ssg83
S"((t='wde',))"
p269
sg85
S'<genexpr>'
p270
sa(dp271
g62
S'/ug/ug2k13/cse/satyendhra.dasara/Desktop/web2py/gluon/dal.py'
p272
sg64
(dp273
S'self'
p274
S'<gluon.dal.SQLiteAdapter object>'
p275
sS'tbl'
p276
S"'wde'"
p277
sS'self.db'
p278
S'<DAL uri="sqlite://storage.sqlite">'
p279
ssg70
I1563
sg71
(dp280
I1558
S'        else:'
p281
sI1559
S'            return str(expression)'
p282
sI1560
S''
sI1561
S'    def table_alias(self, tbl):'
p283
sI1562
S'        if not isinstance(tbl, Table):'
p284
sI1563
S'            tbl = self.db[tbl]'
p285
sI1564
S'        return tbl.sqlsafe_alias'
p286
sI1565
S''
sI1566
S''
sI1567
S'    def alias(self, table, alias):'
p287
ssg83
S"(self=<gluon.dal.SQLiteAdapter object>, tbl='wde')"
p288
sg85
S'table_alias'
p289
sa(dp290
g62
S'/ug/ug2k13/cse/satyendhra.dasara/Desktop/web2py/gluon/dal.py'
p291
sg64
(dp292
S'builtinstr'
p293
S"<type 'str'>"
p294
sS'self.__getattr__'
p295
S'<bound method DAL.__getattr__ of <DAL uri="sqlite://storage.sqlite">>'
p296
sS'self'
p297
S'<DAL uri="sqlite://storage.sqlite">'
p298
sS'key'
p299
S"'wde'"
p300
ssg70
I8322
sg71
(dp301
I8320
S''
sI8321
S'    def __getitem__(self, key):'
p302
sI8322
S'        return self.__getattr__(str(key))'
p303
sI8323
S''
sI8324
S'    def __getattr__(self, key):'
p304
sI8325
S"        if ogetattr(self,'_lazy_tables') and \\"
p305
sI8326
S"                key in ogetattr(self,'_LAZY_TABLES'):"
p306
sI8317
S'    def __iter__(self):'
p307
sI8318
S'        for tablename in self.tables:'
p308
sI8319
S'            yield self[tablename]'
p309
ssg83
S'(self=<DAL uri="sqlite://storage.sqlite">, key=\'wde\')'
p310
sg85
g20
sa(dp311
g62
S'/ug/ug2k13/cse/satyendhra.dasara/Desktop/web2py/gluon/dal.py'
p312
sg64
(dp313
S'self'
p314
S'<DAL uri="sqlite://storage.sqlite">'
p315
sS'global ogetattr'
p316
S"<slot wrapper '__getattribute__' of 'object' objects>"
p317
sS'key'
p318
S"'wde'"
p319
ssg70
I8329
sg71
(dp320
I8324
S'    def __getattr__(self, key):'
p321
sI8325
S"        if ogetattr(self,'_lazy_tables') and \\"
p322
sI8326
S"                key in ogetattr(self,'_LAZY_TABLES'):"
p323
sI8327
S'            tablename, fields, args = self._LAZY_TABLES.pop(key)'
p324
sI8328
S'            return self.lazy_define_table(tablename,*fields,**args)'
p325
sI8329
S'        return ogetattr(self, key)'
p326
sI8330
S''
sI8331
S'    def __setitem__(self, key, value):'
p327
sI8332
S'        osetattr(self, str(key), value)'
p328
sI8333
S''
ssg83
S'(self=<DAL uri="sqlite://storage.sqlite">, key=\'wde\')'
p329
sg85
S'__getattr__'
p330
sasS'pyver'
p331
S'Python 2.7: /usr/bin/python (prefix: /usr)'
p332
sS'session'
p333
g57
(S's@\x01\x00\x00<div><table><tr><td style="font-weight:bold;vertical-align:top;">last_orderby</td><td style="vertical-align:top;">:</td><td><div>None</div></td></tr><tr><td style="font-weight:bold;vertical-align:top;">last_query</td><td style="vertical-align:top;">:</td><td><div>db.satya_wde_names.id&gt;0</div></td></tr></table></div>'
tRp334
sS'etype'
p335
S"<type 'exceptions.AttributeError'>"
p336
sS'date'
p337
S'Sun Apr 13 10:41:12 2014'
p338
sS'response'
p339
g57
(S's"2\x00\x00<div><table><tr><td style="font-weight:bold;vertical-align:top;">body</td><td style="vertical-align:top;">:</td><td><div>&lt;cStringIO.StringO object at 0xaf643040&gt;</div></td></tr><tr><td style="font-weight:bold;vertical-align:top;">cookies</td><td style="vertical-align:top;">:</td><td><div><table><tr><td style="font-weight:bold;vertical-align:top;">session_id_project</td><td style="vertical-align:top;">:</td><td><div>127.0.0.1-f93054e7-dfe4-4ea3-b321-da888dc09d29<table><tr><td style="font-weight:bold;vertical-align:top;">comment</td><td style="vertical-align:top;">:</td><td><div></div></td></tr><tr><td style="font-weight:bold;vertical-align:top;">domain</td><td style="vertical-align:top;">:</td><td><div></div></td></tr><tr><td style="font-weight:bold;vertical-align:top;">expires</td><td style="vertical-align:top;">:</td><td><div></div></td></tr><tr><td style="font-weight:bold;vertical-align:top;">httponly</td><td style="vertical-align:top;">:</td><td><div></div></td></tr><tr><td style="font-weight:bold;vertical-align:top;">max-age</td><td style="vertical-align:top;">:</td><td><div></div></td></tr><tr><td style="font-weight:bold;vertical-align:top;">path</td><td style="vertical-align:top;">:</td><td><div>/</div></td></tr><tr><td style="font-weight:bold;vertical-align:top;">secure</td><td style="vertical-align:top;">:</td><td><div></div></td></tr><tr><td style="font-weight:bold;vertical-align:top;">version</td><td style="vertical-align:top;">:</td><td><div></div></td></tr></table></div></td></tr></table></div></td></tr><tr><td style="font-weight:bold;vertical-align:top;">delimiters</td><td style="vertical-align:top;">:</td><td><div><table><tr><td><div>{{</div></td></tr><tr><td><div>}}</div></td></tr></table></div></td></tr><tr><td style="font-weight:bold;vertical-align:top;">files</td><td style="vertical-align:top;">:</td><td><div><table></table></div></td></tr><tr><td style="font-weight:bold;vertical-align:top;">flash</td><td style="vertical-align:top;">:</td><td><div></div></td></tr><tr><td style="font-weight:bold;vertical-align:top;">generic_patterns</td><td style="vertical-align:top;">:</td><td><div><table><tr><td><div>*</div></td></tr></table></div></td></tr><tr><td style="font-weight:bold;vertical-align:top;">google_analytics_id</td><td style="vertical-align:top;">:</td><td><div>None</div></td></tr><tr><td style="font-weight:bold;vertical-align:top;">headers</td><td style="vertical-align:top;">:</td><td><div><table><tr><td style="font-weight:bold;vertical-align:top;">X-Powered-By</td><td style="vertical-align:top;">:</td><td><div>web2py</div></td></tr></table></div></td></tr><tr><td style="font-weight:bold;vertical-align:top;">logo</td><td style="vertical-align:top;">:</td><td><div><a class="brand" href="http://www.web2py.com/"><b>web<span>2</span>py</b>&trade;&nbsp;</a></div></td></tr><tr><td style="font-weight:bold;vertical-align:top;">menu</td><td style="vertical-align:top;">:</td><td><div><table><tr><td><div><table><tr><td><div>Home</div></td></tr><tr><td><div>False</div></td></tr><tr><td><div>/project/default/index</div></td></tr><tr><td><div><table></table></div></td></tr></table></div></td></tr><tr><td><div><table><tr><td><div><span class="highlighted">web2py</span></div></td></tr><tr><td><div>False</div></td></tr><tr><td><div>http://web2py.com</div></td></tr><tr><td><div><table><tr><td><div><table><tr><td><div>My Sites</div></td></tr><tr><td><div>False</div></td></tr><tr><td><div>/admin/default/site</div></td></tr></table></div></td></tr><tr><td><div><table><tr><td><div>This App</div></td></tr><tr><td><div>False</div></td></tr><tr><td><div>/admin/default/design/project</div></td></tr><tr><td><div>[(&lt;lazyT &#x27;Controller&#x27;&gt;, False, &#x27;/admin/default/edit/project/controllers/meet.py&#x27;), (&lt;lazyT &#x27;View&#x27;&gt;, False, &#x27;/admin/default/edit/project/views/meet/fourth.html&#x27;), (&lt;lazyT &#x27;Layout&#x27;&gt;, False, &#x27;/admin/default/edit/project/views/layout.html&#x27;), (&lt;lazyT &#x27;Stylesheet&#x27;&gt;, False, &#x27;/admin/default/edit/project/static/css/web2py.css&#x27;), (&lt;lazyT &#x27;DB Model&#x27;&gt;, False, &#x27;/admin/default/edit/project/models/db.py&#x27;), (&lt;lazyT &#x27;Menu Model&#x27;&gt;, False, &#x27;/admin/default/edit/project/models/menu.py&#x27;), (&lt;lazyT &#x27;Database&#x27;&gt;, False, &#x27;/project/appadmin/index&#x27;), (&lt;lazyT &#x27;Errors&#x27;&gt;, False, &#x27;/admin/default/errors/project&#x27;), (&lt;lazyT &#x27;About&#x27;&gt;, False, &#x27;/admin/default/about/project&#x27;)]</div></td></tr></table></div></td></tr><tr><td><div><table><tr><td><div>web2py.com</div></td></tr><tr><td><div>False</div></td></tr><tr><td><div>http://www.web2py.com</div></td></tr><tr><td><div>[(&lt;lazyT &#x27;Download&#x27;&gt;, False, &#x27;http://www.web2py.com/examples/default/download&#x27;), (&lt;lazyT &#x27;Support&#x27;&gt;, False, &#x27;http://www.web2py.com/examples/default/support&#x27;), (&lt;lazyT &#x27;Demo&#x27;&gt;, False, &#x27;http://web2py.com/demo_admin&#x27;), (&lt;lazyT &#x27;Quick Examples&#x27;&gt;, False, &#x27;http://web2py.com/examples/default/examples&#x27;), (&lt;lazyT &#x27;FAQ&#x27;&gt;, False, &#x27;http://web2py.com/AlterEgo&#x27;), (&lt;lazyT &#x27;Videos&#x27;&gt;, False, &#x27;http://www.web2py.com/examples/default/videos/&#x27;), (&lt;lazyT &#x27;Free Applications&#x27;&gt;, False, &#x27;http://web2py.com/appliances&#x27;), (&lt;lazyT &#x27;Plugins&#x27;&gt;, False, &#x27;http://web2py.com/plugins&#x27;), (&lt;lazyT &#x27;Layouts&#x27;&gt;, False, &#x27;http://web2py.com/layouts&#x27;), (&lt;lazyT &#x27;Recipes&#x27;&gt;, False, &#x27;http://web2pyslices.com/&#x27;), (&lt;lazyT &#x27;Semantic&#x27;&gt;, False, &#x27;http://web2py.com/semantic&#x27;)]</div></td></tr></table></div></td></tr><tr><td><div><table><tr><td><div>Documentation</div></td></tr><tr><td><div>False</div></td></tr><tr><td><div>http://www.web2py.com/book</div></td></tr><tr><td><div>[(&lt;lazyT &#x27;Preface&#x27;&gt;, False, &#x27;http://www.web2py.com/book/default/chapter/00&#x27;), (&lt;lazyT &#x27;Introduction&#x27;&gt;, False, &#x27;http://www.web2py.com/book/default/chapter/01&#x27;), (&lt;lazyT &#x27;Python&#x27;&gt;, False, &#x27;http://www.web2py.com/book/default/chapter/02&#x27;), (&lt;lazyT &#x27;Overview&#x27;&gt;, False, &#x27;http://www.web2py.com/book/default/chapter/03&#x27;), (&lt;lazyT &#x27;The Core&#x27;&gt;, False, &#x27;http://www.web2py.com/book/default/chapter/04&#x27;), (&lt;lazyT &#x27;The Views&#x27;&gt;, False, &#x27;http://www.web2py.com/book/default/chapter/05&#x27;), (&lt;lazyT &#x27;Database&#x27;&gt;, False, &#x27;http://www.web2py.com/book/default/chapter/06&#x27;), (&lt;lazyT &#x27;Forms and Validators&#x27;&gt;, False, &#x27;http://www.web2py.com/book/default/chapter/07&#x27;), (&lt;lazyT &#x27;Email and SMS&#x27;&gt;, False, &#x27;http://www.web2py.com/book/default/chapter/08&#x27;), (&lt;lazyT &#x27;Access Control&#x27;&gt;, False, &#x27;http://www.web2py.com/book/default/chapter/09&#x27;), (&lt;lazyT &#x27;Services&#x27;&gt;, False, &#x27;http://www.web2py.com/book/default/chapter/10&#x27;), (&lt;lazyT &#x27;Ajax Recipes&#x27;&gt;, False, &#x27;http://www.web2py.com/book/default/chapter/11&#x27;), (&lt;lazyT &#x27;Components and Plugins&#x27;&gt;, False, &#x27;http://www.web2py.com/book/default/chapter/12&#x27;), (&lt;lazyT &#x27;Deployment Recipes&#x27;&gt;, False, &#x27;http://www.web2py.com/book/default/chapter/13&#x27;), (&lt;lazyT &#x27;Other Recipes&#x27;&gt;, False, &#x27;http://www.web2py.com/book/default/chapter/14&#x27;), (&lt;lazyT &#x27;Buy this book&#x27;&gt;, False, &#x27;http://stores.lulu.com/web2py&#x27;)]</div></td></tr></table></div></td></tr><tr><td><div><table><tr><td><div>Community</div></td></tr><tr><td><div>False</div></td></tr><tr><td><div>None</div></td></tr><tr><td><div>[(&lt;lazyT &#x27;Groups&#x27;&gt;, False, &#x27;http://www.web2py.com/examples/default/usergroups&#x27;), (&lt;lazyT &#x27;Twitter&#x27;&gt;, False, &#x27;http://twitter.com/web2py&#x27;), (&lt;lazyT &#x27;Live Chat&#x27;&gt;, False, &#x27;http://webchat.freenode.net/?channels=web2py&#x27;)]</div></td></tr></table></div></td></tr><tr><td><div><table><tr><td><div>Plugins</div></td></tr><tr><td><div>False</div></td></tr><tr><td><div>None</div></td></tr><tr><td><div>[(&#x27;plugin_wiki&#x27;, False, &#x27;http://web2py.com/examples/default/download&#x27;), (&lt;lazyT &#x27;Other Plugins&#x27;&gt;, False, &#x27;http://web2py.com/plugins&#x27;), (&lt;lazyT &#x27;Layout Plugins&#x27;&gt;, False, &#x27;http://web2py.com/layouts&#x27;)]</div></td></tr></table></div></td></tr></table></div></td></tr></table></div></td></tr></table></div></td></tr><tr><td style="font-weight:bold;vertical-align:top;">meta</td><td style="vertical-align:top;">:</td><td><div><table><tr><td style="font-weight:bold;vertical-align:top;">author</td><td style="vertical-align:top;">:</td><td><div>Your Name &lt;you@example.com&gt;</div></td></tr><tr><td style="font-weight:bold;vertical-align:top;">description</td><td style="vertical-align:top;">:</td><td><div>a cool new app</div></td></tr><tr><td style="font-weight:bold;vertical-align:top;">generator</td><td style="vertical-align:top;">:</td><td><div>Web2py Web Framework</div></td></tr><tr><td style="font-weight:bold;vertical-align:top;">keywords</td><td style="vertical-align:top;">:</td><td><div>web2py, python, framework</div></td></tr></table></div></td></tr><tr><td style="font-weight:bold;vertical-align:top;">models_to_run</td><td style="vertical-align:top;">:</td><td><div><table><tr><td><div>^\\w+\\.py$</div></td></tr><tr><td><div>^meet/\\w+\\.py$</div></td></tr><tr><td><div>^meet/fourth/\\w+\\.py$</div></td></tr></table></div></td></tr><tr><td style="font-weight:bold;vertical-align:top;">postprocessing</td><td style="vertical-align:top;">:</td><td><div><table></table></div></td></tr><tr><td style="font-weight:bold;vertical-align:top;">session_client</td><td style="vertical-align:top;">:</td><td><div>127.0.0.1</div></td></tr><tr><td style="font-weight:bold;vertical-align:top;">session_cookie_compression_level</td><td style="vertical-align:top;">:</td><td><div>None</div></td></tr><tr><td style="font-weight:bold;vertical-align:top;">session_cookie_expires</td><td style="vertical-align:top;">:</td><td><div>None</div></td></tr><tr><td style="font-weight:bold;vertical-align:top;">session_cookie_key</td><td style="vertical-align:top;">:</td><td><div>None</div></td></tr><tr><td style="font-weight:bold;vertical-align:top;">session_data_name</td><td style="vertical-align:top;">:</td><td><div>session_data_project</div></td></tr><tr><td style="font-weight:bold;vertical-align:top;">session_file</td><td style="vertical-align:top;">:</td><td><div>&lt;open file &#x27;/ug/ug2k13/cse/satyendhra.dasara/Desktop/web2py/applications/project/sessions/127.0.0.1-f93054e7-dfe4-4ea3-b321-da888dc09d29&#x27;, mode &#x27;rb+&#x27; at 0xaf7eaf40&gt;</div></td></tr><tr><td style="font-weight:bold;vertical-align:top;">session_filename</td><td style="vertical-align:top;">:</td><td><div>/ug/ug2k13/cse/satyendhra.dasara/Desktop/web2py/applications/project/sessions/127.0.0.1-f93054e7-dfe4-4ea3-b321-da888dc09d29</div></td></tr><tr><td style="font-weight:bold;vertical-align:top;">session_hash</td><td style="vertical-align:top;">:</td><td><div>adddb8b459af83494dfd142bda469f8b</div></td></tr><tr><td style="font-weight:bold;vertical-align:top;">session_id</td><td style="vertical-align:top;">:</td><td><div>127.0.0.1-f93054e7-dfe4-4ea3-b321-da888dc09d29</div></td></tr><tr><td style="font-weight:bold;vertical-align:top;">session_id_name</td><td style="vertical-align:top;">:</td><td><div>session_id_project</div></td></tr><tr><td style="font-weight:bold;vertical-align:top;">session_locked</td><td style="vertical-align:top;">:</td><td><div>True</div></td></tr><tr><td style="font-weight:bold;vertical-align:top;">session_masterapp</td><td style="vertical-align:top;">:</td><td><div>project</div></td></tr><tr><td style="font-weight:bold;vertical-align:top;">session_new</td><td style="vertical-align:top;">:</td><td><div>False</div></td></tr><tr><td style="font-weight:bold;vertical-align:top;">session_storage_type</td><td style="vertical-align:top;">:</td><td><div>file</div></td></tr><tr><td style="font-weight:bold;vertical-align:top;">status</td><td style="vertical-align:top;">:</td><td><div>200</div></td></tr><tr><td style="font-weight:bold;vertical-align:top;">subtitle</td><td style="vertical-align:top;">:</td><td><div></div></td></tr><tr><td style="font-weight:bold;vertical-align:top;">title</td><td style="vertical-align:top;">:</td><td><div>Project</div></td></tr><tr><td style="font-weight:bold;vertical-align:top;">view</td><td style="vertical-align:top;">:</td><td><div>meet/fourth.html</div></td></tr></table></div>'
tRp340
sS'locals'
p341
(dp342
S'self'
p343
S'<DAL uri="sqlite://storage.sqlite">'
p344
sS'key'
p345
S"'wde'"
p346
sssS'traceback'
p347
S'Traceback (most recent call last):\n  File "/ug/ug2k13/cse/satyendhra.dasara/Desktop/web2py/gluon/restricted.py", line 217, in restricted\n    exec ccode in environment\n  File "/ug/ug2k13/cse/satyendhra.dasara/Desktop/web2py/applications/project/controllers/meet.py", line 58, in <module>\n  File "/ug/ug2k13/cse/satyendhra.dasara/Desktop/web2py/gluon/globals.py", line 385, in <lambda>\n    self._caller = lambda f: f()\n  File "/ug/ug2k13/cse/satyendhra.dasara/Desktop/web2py/applications/project/controllers/meet.py", line 28, in fourth\n    names = db().select(tb.ALL,orderby=tb.id)\n  File "/ug/ug2k13/cse/satyendhra.dasara/Desktop/web2py/gluon/dal.py", line 10485, in select\n    return adapter.select(self.query,fields,attributes)\n  File "/ug/ug2k13/cse/satyendhra.dasara/Desktop/web2py/gluon/dal.py", line 2458, in select\n    return super(SQLiteAdapter, self).select(query, fields, attributes)\n  File "/ug/ug2k13/cse/satyendhra.dasara/Desktop/web2py/gluon/dal.py", line 1869, in select\n    sql = self._select(query, fields, attributes)\n  File "/ug/ug2k13/cse/satyendhra.dasara/Desktop/web2py/gluon/dal.py", line 1805, in _select\n    sql_t = \', \'.join(self.table_alias(t) for t in tablenames)\n  File "/ug/ug2k13/cse/satyendhra.dasara/Desktop/web2py/gluon/dal.py", line 1805, in <genexpr>\n    sql_t = \', \'.join(self.table_alias(t) for t in tablenames)\n  File "/ug/ug2k13/cse/satyendhra.dasara/Desktop/web2py/gluon/dal.py", line 1563, in table_alias\n    tbl = self.db[tbl]\n  File "/ug/ug2k13/cse/satyendhra.dasara/Desktop/web2py/gluon/dal.py", line 8322, in __getitem__\n    return self.__getattr__(str(key))\n  File "/ug/ug2k13/cse/satyendhra.dasara/Desktop/web2py/gluon/dal.py", line 8329, in __getattr__\n    return ogetattr(self, key)\nAttributeError: \'DAL\' object has no attribute \'wde\'\n'
p348
s.