(dp1
S'output'
p2
S"<type 'exceptions.TypeError'> __init__() got an unexpected keyword argument 'format'"
p3
sS'layer'
p4
S'/ug/ug2k13/cse/satyendhra.dasara/Desktop/web2py/applications/project/models/meet.py'
p5
sS'code'
p6
S'#db = DAL("sqlite://storage.sqlite")\n#TestDB = DAL("sqlite://storage.sqlite",auto_import=True)\nDB = DAL("sqlite://storage.sqlite", auto_import=True, format=\'%(name)s\')\n'
p7
sS'snapshot'
p8
(dp9
S'exception'
p10
(dp11
S'__hash__'
p12
S"<method-wrapper '__hash__' of exceptions.TypeError object>"
p13
sS'__setattr__'
p14
S"<method-wrapper '__setattr__' of exceptions.TypeError object>"
p15
sS'__reduce_ex__'
p16
S'<built-in method __reduce_ex__ of exceptions.TypeError object>'
p17
sS'__getslice__'
p18
S"<method-wrapper '__getslice__' of exceptions.TypeError object>"
p19
sS'__getitem__'
p20
S"<method-wrapper '__getitem__' of exceptions.TypeError object>"
p21
sS'__setstate__'
p22
S'<built-in method __setstate__ of exceptions.TypeError object>'
p23
sS'__reduce__'
p24
S'<built-in method __reduce__ of exceptions.TypeError object>'
p25
sS'__str__'
p26
S"<method-wrapper '__str__' of exceptions.TypeError object>"
p27
sS'__format__'
p28
S'<built-in method __format__ of exceptions.TypeError object>'
p29
sS'__getattribute__'
p30
S"<method-wrapper '__getattribute__' of exceptions.TypeError object>"
p31
sS'__class__'
p32
S"<type 'exceptions.TypeError'>"
p33
sS'__unicode__'
p34
S'<built-in method __unicode__ of exceptions.TypeError object>'
p35
sS'__delattr__'
p36
S"<method-wrapper '__delattr__' of exceptions.TypeError object>"
p37
sS'__subclasshook__'
p38
S'<built-in method __subclasshook__ of type object>'
p39
sS'__repr__'
p40
S"<method-wrapper '__repr__' of exceptions.TypeError object>"
p41
sS'args'
p42
S'("__init__() got an unexpected keyword argument \'format\'",)'
p43
sS'__dict__'
p44
S'{}'
p45
sS'__sizeof__'
p46
S'<built-in method __sizeof__ of exceptions.TypeError object>'
p47
sS'__doc__'
p48
S"'Inappropriate argument type.'"
p49
sS'__init__'
p50
S"<method-wrapper '__init__' of exceptions.TypeError object>"
p51
sS'__new__'
p52
S'<built-in method __new__ of type object>'
p53
ssS'evalue'
p54
S"__init__() got an unexpected keyword argument 'format'"
p55
sS'request'
p56
cgluon.html
XML_unpickle
p57
(S's\x91`\x00\x00<div><table><tr><td style="font-weight:bold;vertical-align:top;">ajax</td><td style="vertical-align:top;">:</td><td><div>False</div></td></tr><tr><td style="font-weight:bold;vertical-align:top;">application</td><td style="vertical-align:top;">:</td><td><div>project</div></td></tr><tr><td style="font-weight:bold;vertical-align:top;">args</td><td style="vertical-align:top;">:</td><td><div><table></table></div></td></tr><tr><td style="font-weight:bold;vertical-align:top;">cid</td><td style="vertical-align:top;">:</td><td><div>None</div></td></tr><tr><td style="font-weight:bold;vertical-align:top;">client</td><td style="vertical-align:top;">:</td><td><div>127.0.0.1</div></td></tr><tr><td style="font-weight:bold;vertical-align:top;">controller</td><td style="vertical-align:top;">:</td><td><div>meet</div></td></tr><tr><td style="font-weight:bold;vertical-align:top;">cookies</td><td style="vertical-align:top;">:</td><td><div><table><tr><td style="font-weight:bold;vertical-align:top;">session_id_admin</td><td style="vertical-align:top;">:</td><td><div>127.0.0.1-6588feef-8291-43a1-8b31-3078ccd9374f<table><tr><td style="font-weight:bold;vertical-align:top;">comment</td><td style="vertical-align:top;">:</td><td><div></div></td></tr><tr><td style="font-weight:bold;vertical-align:top;">domain</td><td style="vertical-align:top;">:</td><td><div></div></td></tr><tr><td style="font-weight:bold;vertical-align:top;">expires</td><td style="vertical-align:top;">:</td><td><div></div></td></tr><tr><td style="font-weight:bold;vertical-align:top;">httponly</td><td style="vertical-align:top;">:</td><td><div></div></td></tr><tr><td style="font-weight:bold;vertical-align:top;">max-age</td><td style="vertical-align:top;">:</td><td><div></div></td></tr><tr><td style="font-weight:bold;vertical-align:top;">path</td><td style="vertical-align:top;">:</td><td><div></div></td></tr><tr><td style="font-weight:bold;vertical-align:top;">secure</td><td style="vertical-align:top;">:</td><td><div></div></td></tr><tr><td style="font-weight:bold;vertical-align:top;">version</td><td style="vertical-align:top;">:</td><td><div></div></td></tr></table></div></td></tr><tr><td style="font-weight:bold;vertical-align:top;">session_id_project</td><td style="vertical-align:top;">:</td><td><div>127.0.0.1-da142b9d-2d3d-4884-959d-da5409137c3c<table><tr><td style="font-weight:bold;vertical-align:top;">comment</td><td style="vertical-align:top;">:</td><td><div></div></td></tr><tr><td style="font-weight:bold;vertical-align:top;">domain</td><td style="vertical-align:top;">:</td><td><div></div></td></tr><tr><td style="font-weight:bold;vertical-align:top;">expires</td><td style="vertical-align:top;">:</td><td><div></div></td></tr><tr><td style="font-weight:bold;vertical-align:top;">httponly</td><td style="vertical-align:top;">:</td><td><div></div></td></tr><tr><td style="font-weight:bold;vertical-align:top;">max-age</td><td style="vertical-align:top;">:</td><td><div></div></td></tr><tr><td style="font-weight:bold;vertical-align:top;">path</td><td style="vertical-align:top;">:</td><td><div></div></td></tr><tr><td style="font-weight:bold;vertical-align:top;">secure</td><td style="vertical-align:top;">:</td><td><div></div></td></tr><tr><td style="font-weight:bold;vertical-align:top;">version</td><td style="vertical-align:top;">:</td><td><div></div></td></tr></table></div></td></tr><tr><td style="font-weight:bold;vertical-align:top;">session_id_test</td><td style="vertical-align:top;">:</td><td><div>127.0.0.1-ed0c4385-4522-4a91-b5c5-aa39f1fea2e1<table><tr><td style="font-weight:bold;vertical-align:top;">comment</td><td style="vertical-align:top;">:</td><td><div></div></td></tr><tr><td style="font-weight:bold;vertical-align:top;">domain</td><td style="vertical-align:top;">:</td><td><div></div></td></tr><tr><td style="font-weight:bold;vertical-align:top;">expires</td><td style="vertical-align:top;">:</td><td><div></div></td></tr><tr><td style="font-weight:bold;vertical-align:top;">httponly</td><td style="vertical-align:top;">:</td><td><div></div></td></tr><tr><td style="font-weight:bold;vertical-align:top;">max-age</td><td style="vertical-align:top;">:</td><td><div></div></td></tr><tr><td style="font-weight:bold;vertical-align:top;">path</td><td style="vertical-align:top;">:</td><td><div></div></td></tr><tr><td style="font-weight:bold;vertical-align:top;">secure</td><td style="vertical-align:top;">:</td><td><div></div></td></tr><tr><td style="font-weight:bold;vertical-align:top;">version</td><td style="vertical-align:top;">:</td><td><div></div></td></tr></table></div></td></tr><tr><td style="font-weight:bold;vertical-align:top;">session_id_welcome</td><td style="vertical-align:top;">:</td><td><div>127.0.0.1-9ab30ea2-9e21-4fdb-8f4a-5825ef38a393<table><tr><td style="font-weight:bold;vertical-align:top;">comment</td><td style="vertical-align:top;">:</td><td><div></div></td></tr><tr><td style="font-weight:bold;vertical-align:top;">domain</td><td style="vertical-align:top;">:</td><td><div></div></td></tr><tr><td style="font-weight:bold;vertical-align:top;">expires</td><td style="vertical-align:top;">:</td><td><div></div></td></tr><tr><td style="font-weight:bold;vertical-align:top;">httponly</td><td style="vertical-align:top;">:</td><td><div></div></td></tr><tr><td style="font-weight:bold;vertical-align:top;">max-age</td><td style="vertical-align:top;">:</td><td><div></div></td></tr><tr><td style="font-weight:bold;vertical-align:top;">path</td><td style="vertical-align:top;">:</td><td><div></div></td></tr><tr><td style="font-weight:bold;vertical-align:top;">secure</td><td style="vertical-align:top;">:</td><td><div></div></td></tr><tr><td style="font-weight:bold;vertical-align:top;">version</td><td style="vertical-align:top;">:</td><td><div></div></td></tr></table></div></td></tr></table></div></td></tr><tr><td style="font-weight:bold;vertical-align:top;">env</td><td style="vertical-align:top;">:</td><td><div><table><tr><td style="font-weight:bold;vertical-align:top;">HTTP_ACCEPT</td><td style="vertical-align:top;">:</td><td><div>text/html,application/xhtml+xml,application/xml;q=0.9,*/*;q=0.8</div></td></tr><tr><td style="font-weight:bold;vertical-align:top;">HTTP_ACCEPT_ENCODING</td><td style="vertical-align:top;">:</td><td><div>gzip, deflate</div></td></tr><tr><td style="font-weight:bold;vertical-align:top;">HTTP_ACCEPT_LANGUAGE</td><td style="vertical-align:top;">:</td><td><div>en-US,en;q=0.5</div></td></tr><tr><td style="font-weight:bold;vertical-align:top;">HTTP_CACHE_CONTROL</td><td style="vertical-align:top;">:</td><td><div>max-age=0</div></td></tr><tr><td style="font-weight:bold;vertical-align:top;">HTTP_CONNECTION</td><td style="vertical-align:top;">:</td><td><div>keep-alive</div></td></tr><tr><td style="font-weight:bold;vertical-align:top;">HTTP_COOKIE</td><td style="vertical-align:top;">:</td><td><div>session_id_welcome=127.0.0.1-9ab30ea2-9e21-4fdb-8f4a-5825ef38a393; session_id_test=127.0.0.1-ed0c4385-4522-4a91-b5c5-aa39f1fea2e1; session_id_admin=127.0.0.1-6588feef-8291-43a1-8b31-3078ccd9374f; session_id_project=127.0.0.1-da142b9d-2d3d-4884-959d-da5409137c3c</div></td></tr><tr><td style="font-weight:bold;vertical-align:top;">HTTP_HOST</td><td style="vertical-align:top;">:</td><td><div>127.0.0.1:8000</div></td></tr><tr><td style="font-weight:bold;vertical-align:top;">HTTP_USER_AGENT</td><td style="vertical-align:top;">:</td><td><div>Mozilla/5.0 (X11; Linux i686; rv:27.0) Gecko/20100101 Firefox/27.0</div></td></tr><tr><td style="font-weight:bold;vertical-align:top;">PATH_INFO</td><td style="vertical-align:top;">:</td><td><div>/project/meet/first</div></td></tr><tr><td style="font-weight:bold;vertical-align:top;">QUERY_STRING</td><td style="vertical-align:top;">:</td><td><div></div></td></tr><tr><td style="font-weight:bold;vertical-align:top;">REMOTE_ADDR</td><td style="vertical-align:top;">:</td><td><div>127.0.0.1</div></td></tr><tr><td style="font-weight:bold;vertical-align:top;">REMOTE_PORT</td><td style="vertical-align:top;">:</td><td><div>36264</div></td></tr><tr><td style="font-weight:bold;vertical-align:top;">REQUEST_METHOD</td><td style="vertical-align:top;">:</td><td><div>GET</div></td></tr><tr><td style="font-weight:bold;vertical-align:top;">SCRIPT_NAME</td><td style="vertical-align:top;">:</td><td><div></div></td></tr><tr><td style="font-weight:bold;vertical-align:top;">SERVER_NAME</td><td style="vertical-align:top;">:</td><td><div>cr13007</div></td></tr><tr><td style="font-weight:bold;vertical-align:top;">SERVER_PORT</td><td style="vertical-align:top;">:</td><td><div>8000</div></td></tr><tr><td style="font-weight:bold;vertical-align:top;">SERVER_PROTOCOL</td><td style="vertical-align:top;">:</td><td><div>HTTP/1.1</div></td></tr><tr><td style="font-weight:bold;vertical-align:top;">SERVER_SOFTWARE</td><td style="vertical-align:top;">:</td><td><div>Rocket 1.2.6</div></td></tr><tr><td style="font-weight:bold;vertical-align:top;">app_folders</td><td style="vertical-align:top;">:</td><td><div>set([&#x27;/ug/ug2k13/cse/satyendhra.dasara/Desktop/web2py/applications/project/&#x27;, &#x27;/ug/ug2k13/cse/satyendhra.dasara/Desktop/web2py/applications/admin/&#x27;, &#x27;/ug/ug2k13/cse/satyendhra.dasara/Desktop/web2py/applications/test/&#x27;, &#x27;/ug/ug2k13/cse/satyendhra.dasara/Desktop/web2py/applications/welcome/&#x27;])</div></td></tr><tr><td style="font-weight:bold;vertical-align:top;">applications_parent</td><td style="vertical-align:top;">:</td><td><div>/ug/ug2k13/cse/satyendhra.dasara/Desktop/web2py</div></td></tr><tr><td style="font-weight:bold;vertical-align:top;">cmd_args</td><td style="vertical-align:top;">:</td><td><div><table></table></div></td></tr><tr><td style="font-weight:bold;vertical-align:top;">cmd_options</td><td style="vertical-align:top;">:</td><td><div>&lt;Values at 0x9266d4c: {&#x27;verbose&#x27;: False, &#x27;ip&#x27;: &#x27;127.0.0.1&#x27;, &#x27;debuglevel&#x27;: 30, &#x27;with_scheduler&#x27;: False, &#x27;ips&#x27;: [&#x27;::1&#x27;], &#x27;shutdown_timeout&#x27;: 5, &#x27;taskbar&#x27;: False, &#x27;with_coverage&#x27;: False, &#x27;port&#x27;: 8000, &#x27;maxthreads&#x27;: None, &#x27;softcron&#x27;: False, &#x27;server_name&#x27;: &#x27;cr13007&#x27;, &#x27;bpython&#x27;: False, &#x27;nogui&#x27;: False, &#x27;pid_filename&#x27;: &#x27;httpserver.pid&#x27;, &#x27;extcron&#x27;: False, &#x27;runcron&#x27;: False, &#x27;run_system_tests&#x27;: False, &#x27;test&#x27;: None, &#x27;folder&#x27;: &#x27;/ug/ug2k13/cse/satyendhra.dasara/Desktop/web2py&#x27;, &#x27;config&#x27;: &#x27;&#x27;, &#x27;minthreads&#x27;: None, &#x27;shell&#x27;: None, &#x27;run&#x27;: &#x27;&#x27;, &#x27;log_filename&#x27;: &#x27;httpserver.log&#x27;, &#x27;profiler_dir&#x27;: None, &#x27;args&#x27;: [&#x27;&#x27;], &#x27;socket_timeout&#x27;: 5, &#x27;ssl_ca_certificate&#x27;: None, &#x27;scheduler&#x27;: None, &#x27;interfaces&#x27;: None, &#x27;ssl_private_key&#x27;: &#x27;&#x27;, &#x27;scheduler_groups&#x27;: None, &#x27;password&#x27;: &#x27;&lt;ask&gt;&#x27;, &#x27;request_queue_size&#x27;: 5, &#x27;ssl_certificate&#x27;: &#x27;&#x27;, &#x27;cronjob&#x27;: False, &#x27;numthreads&#x27;: None, &#x27;quiet&#x27;: False, &#x27;import_models&#x27;: False, &#x27;timeout&#x27;: 10, &#x27;plain&#x27;: False, &#x27;nobanner&#x27;: False}&gt;</div></td></tr><tr><td style="font-weight:bold;vertical-align:top;">db_sessions</td><td style="vertical-align:top;">:</td><td><div>set([])</div></td></tr><tr><td style="font-weight:bold;vertical-align:top;">debugging</td><td style="vertical-align:top;">:</td><td><div>False</div></td></tr><tr><td style="font-weight:bold;vertical-align:top;">gluon_parent</td><td style="vertical-align:top;">:</td><td><div>/ug/ug2k13/cse/satyendhra.dasara/Desktop/web2py</div></td></tr><tr><td style="font-weight:bold;vertical-align:top;">http_accept</td><td style="vertical-align:top;">:</td><td><div>text/html,application/xhtml+xml,application/xml;q=0.9,*/*;q=0.8</div></td></tr><tr><td style="font-weight:bold;vertical-align:top;">http_accept_encoding</td><td style="vertical-align:top;">:</td><td><div>gzip, deflate</div></td></tr><tr><td style="font-weight:bold;vertical-align:top;">http_accept_language</td><td style="vertical-align:top;">:</td><td><div>en-US,en;q=0.5</div></td></tr><tr><td style="font-weight:bold;vertical-align:top;">http_cache_control</td><td style="vertical-align:top;">:</td><td><div>max-age=0</div></td></tr><tr><td style="font-weight:bold;vertical-align:top;">http_connection</td><td style="vertical-align:top;">:</td><td><div>keep-alive</div></td></tr><tr><td style="font-weight:bold;vertical-align:top;">http_cookie</td><td style="vertical-align:top;">:</td><td><div>session_id_welcome=127.0.0.1-9ab30ea2-9e21-4fdb-8f4a-5825ef38a393; session_id_test=127.0.0.1-ed0c4385-4522-4a91-b5c5-aa39f1fea2e1; session_id_admin=127.0.0.1-6588feef-8291-43a1-8b31-3078ccd9374f; session_id_project=127.0.0.1-da142b9d-2d3d-4884-959d-da5409137c3c</div></td></tr><tr><td style="font-weight:bold;vertical-align:top;">http_host</td><td style="vertical-align:top;">:</td><td><div>127.0.0.1:8000</div></td></tr><tr><td style="font-weight:bold;vertical-align:top;">http_user_agent</td><td style="vertical-align:top;">:</td><td><div>Mozilla/5.0 (X11; Linux i686; rv:27.0) Gecko/20100101 Firefox/27.0</div></td></tr><tr><td style="font-weight:bold;vertical-align:top;">is_jython</td><td style="vertical-align:top;">:</td><td><div>False</div></td></tr><tr><td style="font-weight:bold;vertical-align:top;">is_pypy</td><td style="vertical-align:top;">:</td><td><div>False</div></td></tr><tr><td style="font-weight:bold;vertical-align:top;">is_source</td><td style="vertical-align:top;">:</td><td><div>True</div></td></tr><tr><td style="font-weight:bold;vertical-align:top;">local_hosts</td><td style="vertical-align:top;">:</td><td><div><table><tr><td><div>::ffff:127.0.0.1</div></td></tr><tr><td><div>::1</div></td></tr><tr><td><div>cr13007</div></td></tr><tr><td><div>localhost6.localdomain6</div></td></tr><tr><td><div>10.3.8.233</div></td></tr><tr><td><div>127.0.0.1</div></td></tr></table></div></td></tr><tr><td style="font-weight:bold;vertical-align:top;">path_info</td><td style="vertical-align:top;">:</td><td><div>/project/meet/first</div></td></tr><tr><td style="font-weight:bold;vertical-align:top;">query_string</td><td style="vertical-align:top;">:</td><td><div></div></td></tr><tr><td style="font-weight:bold;vertical-align:top;">remote_addr</td><td style="vertical-align:top;">:</td><td><div>127.0.0.1</div></td></tr><tr><td style="font-weight:bold;vertical-align:top;">remote_port</td><td style="vertical-align:top;">:</td><td><div>36264</div></td></tr><tr><td style="font-weight:bold;vertical-align:top;">request_method</td><td style="vertical-align:top;">:</td><td><div>GET</div></td></tr><tr><td style="font-weight:bold;vertical-align:top;">request_uri</td><td style="vertical-align:top;">:</td><td><div>/project/meet/first</div></td></tr><tr><td style="font-weight:bold;vertical-align:top;">script_name</td><td style="vertical-align:top;">:</td><td><div></div></td></tr><tr><td style="font-weight:bold;vertical-align:top;">server_name</td><td style="vertical-align:top;">:</td><td><div>cr13007</div></td></tr><tr><td style="font-weight:bold;vertical-align:top;">server_port</td><td style="vertical-align:top;">:</td><td><div>8000</div></td></tr><tr><td style="font-weight:bold;vertical-align:top;">server_protocol</td><td style="vertical-align:top;">:</td><td><div>HTTP/1.1</div></td></tr><tr><td style="font-weight:bold;vertical-align:top;">server_software</td><td style="vertical-align:top;">:</td><td><div>Rocket 1.2.6</div></td></tr><tr><td style="font-weight:bold;vertical-align:top;">web2py_path</td><td style="vertical-align:top;">:</td><td><div>/ug/ug2k13/cse/satyendhra.dasara/Desktop/web2py</div></td></tr><tr><td style="font-weight:bold;vertical-align:top;">web2py_version</td><td style="vertical-align:top;">:</td><td><div>2.9.4-stable+timestamp.2014.03.05.04.44.09</div></td></tr><tr><td style="font-weight:bold;vertical-align:top;">wsgi.errors</td><td style="vertical-align:top;">:</td><td><div>&lt;open file &#x27;&lt;stderr&gt;&#x27;, mode &#x27;w&#x27; at 0xb773c0d0&gt;</div></td></tr><tr><td style="font-weight:bold;vertical-align:top;">wsgi.file_wrapper</td><td style="vertical-align:top;">:</td><td><div>&lt;class wsgiref.util.FileWrapper at 0x9227e6c&gt;</div></td></tr><tr><td style="font-weight:bold;vertical-align:top;">wsgi.input</td><td style="vertical-align:top;">:</td><td><div>&lt;socket._fileobject object at 0xaec417ac&gt;</div></td></tr><tr><td style="font-weight:bold;vertical-align:top;">wsgi.multiprocess</td><td style="vertical-align:top;">:</td><td><div>False</div></td></tr><tr><td style="font-weight:bold;vertical-align:top;">wsgi.multithread</td><td style="vertical-align:top;">:</td><td><div>True</div></td></tr><tr><td style="font-weight:bold;vertical-align:top;">wsgi.run_once</td><td style="vertical-align:top;">:</td><td><div>False</div></td></tr><tr><td style="font-weight:bold;vertical-align:top;">wsgi.url_scheme</td><td style="vertical-align:top;">:</td><td><div>http</div></td></tr><tr><td style="font-weight:bold;vertical-align:top;">wsgi.version</td><td style="vertical-align:top;">:</td><td><div><table><tr><td><div>1</div></td></tr><tr><td><div>0</div></td></tr></table></div></td></tr><tr><td style="font-weight:bold;vertical-align:top;">wsgi_errors</td><td style="vertical-align:top;">:</td><td><div>&lt;open file &#x27;&lt;stderr&gt;&#x27;, mode &#x27;w&#x27; at 0xb773c0d0&gt;</div></td></tr><tr><td style="font-weight:bold;vertical-align:top;">wsgi_file_wrapper</td><td style="vertical-align:top;">:</td><td><div>&lt;class wsgiref.util.FileWrapper at 0x9227e6c&gt;</div></td></tr><tr><td style="font-weight:bold;vertical-align:top;">wsgi_input</td><td style="vertical-align:top;">:</td><td><div>&lt;socket._fileobject object at 0xaec417ac&gt;</div></td></tr><tr><td style="font-weight:bold;vertical-align:top;">wsgi_multiprocess</td><td style="vertical-align:top;">:</td><td><div>False</div></td></tr><tr><td style="font-weight:bold;vertical-align:top;">wsgi_multithread</td><td style="vertical-align:top;">:</td><td><div>True</div></td></tr><tr><td style="font-weight:bold;vertical-align:top;">wsgi_run_once</td><td style="vertical-align:top;">:</td><td><div>False</div></td></tr><tr><td style="font-weight:bold;vertical-align:top;">wsgi_url_scheme</td><td style="vertical-align:top;">:</td><td><div>http</div></td></tr><tr><td style="font-weight:bold;vertical-align:top;">wsgi_version</td><td style="vertical-align:top;">:</td><td><div><table><tr><td><div>1</div></td></tr><tr><td><div>0</div></td></tr></table></div></td></tr></table></div></td></tr><tr><td style="font-weight:bold;vertical-align:top;">extension</td><td style="vertical-align:top;">:</td><td><div>html</div></td></tr><tr><td style="font-weight:bold;vertical-align:top;">folder</td><td style="vertical-align:top;">:</td><td><div>/ug/ug2k13/cse/satyendhra.dasara/Desktop/web2py/applications/project/</div></td></tr><tr><td style="font-weight:bold;vertical-align:top;">function</td><td style="vertical-align:top;">:</td><td><div>first</div></td></tr><tr><td style="font-weight:bold;vertical-align:top;">global_settings</td><td style="vertical-align:top;">:</td><td><div><table><tr><td style="font-weight:bold;vertical-align:top;">app_folders</td><td style="vertical-align:top;">:</td><td><div>set([&#x27;/ug/ug2k13/cse/satyendhra.dasara/Desktop/web2py/applications/project/&#x27;, &#x27;/ug/ug2k13/cse/satyendhra.dasara/Desktop/web2py/applications/admin/&#x27;, &#x27;/ug/ug2k13/cse/satyendhra.dasara/Desktop/web2py/applications/test/&#x27;, &#x27;/ug/ug2k13/cse/satyendhra.dasara/Desktop/web2py/applications/welcome/&#x27;])</div></td></tr><tr><td style="font-weight:bold;vertical-align:top;">applications_parent</td><td style="vertical-align:top;">:</td><td><div>/ug/ug2k13/cse/satyendhra.dasara/Desktop/web2py</div></td></tr><tr><td style="font-weight:bold;vertical-align:top;">cmd_args</td><td style="vertical-align:top;">:</td><td><div><table></table></div></td></tr><tr><td style="font-weight:bold;vertical-align:top;">cmd_options</td><td style="vertical-align:top;">:</td><td><div>&lt;Values at 0x9266d4c: {&#x27;verbose&#x27;: False, &#x27;ip&#x27;: &#x27;127.0.0.1&#x27;, &#x27;debuglevel&#x27;: 30, &#x27;with_scheduler&#x27;: False, &#x27;ips&#x27;: [&#x27;::1&#x27;], &#x27;shutdown_timeout&#x27;: 5, &#x27;taskbar&#x27;: False, &#x27;with_coverage&#x27;: False, &#x27;port&#x27;: 8000, &#x27;maxthreads&#x27;: None, &#x27;softcron&#x27;: False, &#x27;server_name&#x27;: &#x27;cr13007&#x27;, &#x27;bpython&#x27;: False, &#x27;nogui&#x27;: False, &#x27;pid_filename&#x27;: &#x27;httpserver.pid&#x27;, &#x27;extcron&#x27;: False, &#x27;runcron&#x27;: False, &#x27;run_system_tests&#x27;: False, &#x27;test&#x27;: None, &#x27;folder&#x27;: &#x27;/ug/ug2k13/cse/satyendhra.dasara/Desktop/web2py&#x27;, &#x27;config&#x27;: &#x27;&#x27;, &#x27;minthreads&#x27;: None, &#x27;shell&#x27;: None, &#x27;run&#x27;: &#x27;&#x27;, &#x27;log_filename&#x27;: &#x27;httpserver.log&#x27;, &#x27;profiler_dir&#x27;: None, &#x27;args&#x27;: [&#x27;&#x27;], &#x27;socket_timeout&#x27;: 5, &#x27;ssl_ca_certificate&#x27;: None, &#x27;scheduler&#x27;: None, &#x27;interfaces&#x27;: None, &#x27;ssl_private_key&#x27;: &#x27;&#x27;, &#x27;scheduler_groups&#x27;: None, &#x27;password&#x27;: &#x27;&lt;ask&gt;&#x27;, &#x27;request_queue_size&#x27;: 5, &#x27;ssl_certificate&#x27;: &#x27;&#x27;, &#x27;cronjob&#x27;: False, &#x27;numthreads&#x27;: None, &#x27;quiet&#x27;: False, &#x27;import_models&#x27;: False, &#x27;timeout&#x27;: 10, &#x27;plain&#x27;: False, &#x27;nobanner&#x27;: False}&gt;</div></td></tr><tr><td style="font-weight:bold;vertical-align:top;">db_sessions</td><td style="vertical-align:top;">:</td><td><div>set([])</div></td></tr><tr><td style="font-weight:bold;vertical-align:top;">debugging</td><td style="vertical-align:top;">:</td><td><div>False</div></td></tr><tr><td style="font-weight:bold;vertical-align:top;">gluon_parent</td><td style="vertical-align:top;">:</td><td><div>/ug/ug2k13/cse/satyendhra.dasara/Desktop/web2py</div></td></tr><tr><td style="font-weight:bold;vertical-align:top;">is_jython</td><td style="vertical-align:top;">:</td><td><div>False</div></td></tr><tr><td style="font-weight:bold;vertical-align:top;">is_pypy</td><td style="vertical-align:top;">:</td><td><div>False</div></td></tr><tr><td style="font-weight:bold;vertical-align:top;">is_source</td><td style="vertical-align:top;">:</td><td><div>True</div></td></tr><tr><td style="font-weight:bold;vertical-align:top;">local_hosts</td><td style="vertical-align:top;">:</td><td><div><table><tr><td><div>::ffff:127.0.0.1</div></td></tr><tr><td><div>::1</div></td></tr><tr><td><div>cr13007</div></td></tr><tr><td><div>localhost6.localdomain6</div></td></tr><tr><td><div>10.3.8.233</div></td></tr><tr><td><div>127.0.0.1</div></td></tr></table></div></td></tr><tr><td style="font-weight:bold;vertical-align:top;">web2py_version</td><td style="vertical-align:top;">:</td><td><div>2.9.4-stable+timestamp.2014.03.05.04.44.09</div></td></tr></table></div></td></tr><tr><td style="font-weight:bold;vertical-align:top;">is_https</td><td style="vertical-align:top;">:</td><td><div>False</div></td></tr><tr><td style="font-weight:bold;vertical-align:top;">is_local</td><td style="vertical-align:top;">:</td><td><div>True</div></td></tr><tr><td style="font-weight:bold;vertical-align:top;">is_restful</td><td style="vertical-align:top;">:</td><td><div>False</div></td></tr><tr><td style="font-weight:bold;vertical-align:top;">now</td><td style="vertical-align:top;">:</td><td><div>datetime.datetime(2014, 3, 22, 20, 39, 3, 725273)</div></td></tr><tr><td style="font-weight:bold;vertical-align:top;">raw_args</td><td style="vertical-align:top;">:</td><td><div></div></td></tr><tr><td style="font-weight:bold;vertical-align:top;">raw_extension</td><td style="vertical-align:top;">:</td><td><div>None</div></td></tr><tr><td style="font-weight:bold;vertical-align:top;">url</td><td style="vertical-align:top;">:</td><td><div>/project/meet/first</div></td></tr><tr><td style="font-weight:bold;vertical-align:top;">utcnow</td><td style="vertical-align:top;">:</td><td><div>datetime.datetime(2014, 3, 22, 15, 9, 3, 725309)</div></td></tr><tr><td style="font-weight:bold;vertical-align:top;">uuid</td><td style="vertical-align:top;">:</td><td><div>project/127.0.0.1.2014-03-22.20-39-03.730d7c7d-c8c1-4541-87a7-5b7096469965</div></td></tr><tr><td style="font-weight:bold;vertical-align:top;">wsgi</td><td style="vertical-align:top;">:</td><td><div>&lt;gluon.main.LazyWSGI object at 0xaef8688c&gt;</div></td></tr></table></div>'
tRp58
sS'frames'
p59
(lp60
(dp61
S'file'
p62
S'/ug/ug2k13/cse/satyendhra.dasara/Desktop/web2py/gluon/restricted.py'
p63
sS'dump'
p64
(dp65
S'environment'
p66
S"{'A': <class 'gluon.html.A'>, 'ANY_OF': <class 'gluon.validators.ANY_OF'>, 'Auth': <class 'gluon.tools.Auth'>, 'B': <class 'gluon.html.B'>, 'BEAUTIFY': <class 'gluon.html.BEAUTIFY'>, 'BODY': <class 'gluon.html.BODY'>, 'BR': <class 'gluon.html.BR'>, 'BUTTON': <class 'gluon.html.BUTTON'>, 'CAT': <class 'gluon.html.CAT'>, 'CENTER': <class 'gluon.html.CENTER'>, ...}"
p67
sS'ccode'
p68
S'<code object <module> at 0xaec4ec80, file "/ug/u...2py/applications/project/models/meet.py", line 3>'
p69
ssS'lnum'
p70
I217
sS'lines'
p71
(dp72
I212
S'    try:'
p73
sI213
S'        if isinstance(code, types.CodeType):'
p74
sI214
S'            ccode = code'
p75
sI215
S'        else:'
p76
sI216
S'            ccode = compile2(code, layer)'
p77
sI217
S'        exec ccode in environment'
p78
sI218
S'    except HTTP:'
p79
sI219
S'        raise'
p80
sI220
S'    except RestrictedError:'
p81
sI221
S'        # do not encapsulate (obfuscate) the original RestrictedError'
p82
ssS'call'
p83
S'(code=\'#db = DAL("sqlite://storage.sqlite")\\n#TestDB = D...ge.sqlite", auto_import=True, format=\\\'%(name)s\\\')\\n\', environment={\'A\': <class \'gluon.html.A\'>, \'ANY_OF\': <class \'gluon.validators.ANY_OF\'>, \'Auth\': <class \'gluon.tools.Auth\'>, \'B\': <class \'gluon.html.B\'>, \'BEAUTIFY\': <class \'gluon.html.BEAUTIFY\'>, \'BODY\': <class \'gluon.html.BODY\'>, \'BR\': <class \'gluon.html.BR\'>, \'BUTTON\': <class \'gluon.html.BUTTON\'>, \'CAT\': <class \'gluon.html.CAT\'>, \'CENTER\': <class \'gluon.html.CENTER\'>, ...}, layer=\'/ug/ug2k13/cse/satyendhra.dasara/Desktop/web2py/applications/project/models/meet.py\')'
p84
sS'func'
p85
S'restricted'
p86
sa(dp87
g62
S'/ug/ug2k13/cse/satyendhra.dasara/Desktop/web2py/applications/project/models/meet.py'
p88
sg64
(dp89
S'DAL'
p90
S"<class 'gluon.dal.DAL'>"
p91
sS'auto_import'
p92
S'undefined'
p93
sS'builtinTrue'
p94
S'True'
p95
sS'DB'
p96
g93
sS'builtinformat'
p97
S'<built-in function format>'
p98
ssg70
I3
sg71
(dp99
I1
S'#db = DAL("sqlite://storage.sqlite")'
p100
sI2
S'#TestDB = DAL("sqlite://storage.sqlite",auto_import=True)'
p101
sI3
S'DB = DAL("sqlite://storage.sqlite", auto_import=True, format=\'%(name)s\')'
p102
ssg83
S'()'
p103
sg85
S'<module>'
p104
sasS'pyver'
p105
S'Python 2.7: /usr/bin/python (prefix: /usr)'
p106
sS'session'
p107
g57
(S's6\x01\x00\x00<div><table><tr><td style="font-weight:bold;vertical-align:top;">last_orderby</td><td style="vertical-align:top;">:</td><td><div>None</div></td></tr><tr><td style="font-weight:bold;vertical-align:top;">last_query</td><td style="vertical-align:top;">:</td><td><div>DB.satya.id&gt;0</div></td></tr></table></div>'
tRp108
sS'etype'
p109
S"<type 'exceptions.TypeError'>"
p110
sS'date'
p111
S'Sat Mar 22 20:39:03 2014'
p112
sS'response'
p113
g57
(S's\xf2\x16\x00\x00<div><table><tr><td style="font-weight:bold;vertical-align:top;">body</td><td style="vertical-align:top;">:</td><td><div>&lt;cStringIO.StringO object at 0xae612e40&gt;</div></td></tr><tr><td style="font-weight:bold;vertical-align:top;">cookies</td><td style="vertical-align:top;">:</td><td><div><table><tr><td style="font-weight:bold;vertical-align:top;">session_id_project</td><td style="vertical-align:top;">:</td><td><div>127.0.0.1-da142b9d-2d3d-4884-959d-da5409137c3c<table><tr><td style="font-weight:bold;vertical-align:top;">comment</td><td style="vertical-align:top;">:</td><td><div></div></td></tr><tr><td style="font-weight:bold;vertical-align:top;">domain</td><td style="vertical-align:top;">:</td><td><div></div></td></tr><tr><td style="font-weight:bold;vertical-align:top;">expires</td><td style="vertical-align:top;">:</td><td><div></div></td></tr><tr><td style="font-weight:bold;vertical-align:top;">httponly</td><td style="vertical-align:top;">:</td><td><div></div></td></tr><tr><td style="font-weight:bold;vertical-align:top;">max-age</td><td style="vertical-align:top;">:</td><td><div></div></td></tr><tr><td style="font-weight:bold;vertical-align:top;">path</td><td style="vertical-align:top;">:</td><td><div>/</div></td></tr><tr><td style="font-weight:bold;vertical-align:top;">secure</td><td style="vertical-align:top;">:</td><td><div></div></td></tr><tr><td style="font-weight:bold;vertical-align:top;">version</td><td style="vertical-align:top;">:</td><td><div></div></td></tr></table></div></td></tr></table></div></td></tr><tr><td style="font-weight:bold;vertical-align:top;">delimiters</td><td style="vertical-align:top;">:</td><td><div><table><tr><td><div>{{</div></td></tr><tr><td><div>}}</div></td></tr></table></div></td></tr><tr><td style="font-weight:bold;vertical-align:top;">files</td><td style="vertical-align:top;">:</td><td><div><table></table></div></td></tr><tr><td style="font-weight:bold;vertical-align:top;">flash</td><td style="vertical-align:top;">:</td><td><div></div></td></tr><tr><td style="font-weight:bold;vertical-align:top;">generic_patterns</td><td style="vertical-align:top;">:</td><td><div><table><tr><td><div>*</div></td></tr></table></div></td></tr><tr><td style="font-weight:bold;vertical-align:top;">headers</td><td style="vertical-align:top;">:</td><td><div><table><tr><td style="font-weight:bold;vertical-align:top;">X-Powered-By</td><td style="vertical-align:top;">:</td><td><div>web2py</div></td></tr></table></div></td></tr><tr><td style="font-weight:bold;vertical-align:top;">menu</td><td style="vertical-align:top;">:</td><td><div><table></table></div></td></tr><tr><td style="font-weight:bold;vertical-align:top;">meta</td><td style="vertical-align:top;">:</td><td><div><table></table></div></td></tr><tr><td style="font-weight:bold;vertical-align:top;">models_to_run</td><td style="vertical-align:top;">:</td><td><div><table><tr><td><div>^\\w+\\.py$</div></td></tr><tr><td><div>^meet/\\w+\\.py$</div></td></tr><tr><td><div>^meet/first/\\w+\\.py$</div></td></tr></table></div></td></tr><tr><td style="font-weight:bold;vertical-align:top;">postprocessing</td><td style="vertical-align:top;">:</td><td><div><table></table></div></td></tr><tr><td style="font-weight:bold;vertical-align:top;">session_client</td><td style="vertical-align:top;">:</td><td><div>127.0.0.1</div></td></tr><tr><td style="font-weight:bold;vertical-align:top;">session_cookie_compression_level</td><td style="vertical-align:top;">:</td><td><div>None</div></td></tr><tr><td style="font-weight:bold;vertical-align:top;">session_cookie_expires</td><td style="vertical-align:top;">:</td><td><div>None</div></td></tr><tr><td style="font-weight:bold;vertical-align:top;">session_cookie_key</td><td style="vertical-align:top;">:</td><td><div>None</div></td></tr><tr><td style="font-weight:bold;vertical-align:top;">session_data_name</td><td style="vertical-align:top;">:</td><td><div>session_data_project</div></td></tr><tr><td style="font-weight:bold;vertical-align:top;">session_file</td><td style="vertical-align:top;">:</td><td><div>&lt;open file &#x27;/ug/ug2k13/cse/satyendhra.dasara/Desktop/web2py/applications/project/sessions/127.0.0.1-da142b9d-2d3d-4884-959d-da5409137c3c&#x27;, mode &#x27;rb+&#x27; at 0xaec50a18&gt;</div></td></tr><tr><td style="font-weight:bold;vertical-align:top;">session_filename</td><td style="vertical-align:top;">:</td><td><div>/ug/ug2k13/cse/satyendhra.dasara/Desktop/web2py/applications/project/sessions/127.0.0.1-da142b9d-2d3d-4884-959d-da5409137c3c</div></td></tr><tr><td style="font-weight:bold;vertical-align:top;">session_hash</td><td style="vertical-align:top;">:</td><td><div>62960e08be116119143bdad619b69c4a</div></td></tr><tr><td style="font-weight:bold;vertical-align:top;">session_id</td><td style="vertical-align:top;">:</td><td><div>127.0.0.1-da142b9d-2d3d-4884-959d-da5409137c3c</div></td></tr><tr><td style="font-weight:bold;vertical-align:top;">session_id_name</td><td style="vertical-align:top;">:</td><td><div>session_id_project</div></td></tr><tr><td style="font-weight:bold;vertical-align:top;">session_locked</td><td style="vertical-align:top;">:</td><td><div>True</div></td></tr><tr><td style="font-weight:bold;vertical-align:top;">session_masterapp</td><td style="vertical-align:top;">:</td><td><div>project</div></td></tr><tr><td style="font-weight:bold;vertical-align:top;">session_new</td><td style="vertical-align:top;">:</td><td><div>False</div></td></tr><tr><td style="font-weight:bold;vertical-align:top;">session_storage_type</td><td style="vertical-align:top;">:</td><td><div>file</div></td></tr><tr><td style="font-weight:bold;vertical-align:top;">status</td><td style="vertical-align:top;">:</td><td><div>200</div></td></tr><tr><td style="font-weight:bold;vertical-align:top;">view</td><td style="vertical-align:top;">:</td><td><div>meet/first.html</div></td></tr></table></div>'
tRp114
sS'locals'
p115
(dp116
S'Service'
p117
S"<class 'gluon.tools.Service'>"
p118
sS'OBJECT'
p119
S"<class 'gluon.html.OBJECT'>"
p120
sS'SQLDB'
p121
S"<class 'gluon.dal.DAL'>"
p122
sg107
S"<Storage {'_formkey[default]': ['eae7aa6c-40c1-4...orage {'version': '27.0', 'name': 'Firefox'}>}>}>"
p123
sS'LINK'
p124
S"<class 'gluon.html.LINK'>"
p125
sS'BR'
p126
S"<class 'gluon.html.BR'>"
p127
sS'local_import'
p128
S'<function <lambda>>'
p129
sS'OPTGROUP'
p130
S"<class 'gluon.html.OPTGROUP'>"
p131
sS'LI'
p132
S"<class 'gluon.html.LI'>"
p133
sS'PRE'
p134
S"<class 'gluon.html.PRE'>"
p135
sS'IS_INT_IN_RANGE'
p136
S"<class 'gluon.validators.IS_INT_IN_RANGE'>"
p137
sS'IS_LOWER'
p138
S"<class 'gluon.validators.IS_LOWER'>"
p139
sS'IS_STRONG'
p140
S"<class 'gluon.validators.IS_STRONG'>"
p141
sS'cache'
p142
S'<gluon.cache.Cache object>'
p143
sS'IS_IN_DB'
p144
S"<class 'gluon.validators.IS_IN_DB'>"
p145
sS'TAG'
p146
S'<gluon.html.__TAG__ object>'
p147
sS'SQLField'
p148
S"<class 'gluon.dal.Field'>"
p149
sS'mail'
p150
S'<gluon.tools.Mail object>'
p151
sS'BODY'
p152
S"<class 'gluon.html.BODY'>"
p153
sS'IS_DATE_IN_RANGE'
p154
S"<class 'gluon.validators.IS_DATE_IN_RANGE'>"
p155
sS'TH'
p156
S"<class 'gluon.html.TH'>"
p157
sS'URL'
p158
S'<function URL>'
p159
sS'__file__'
p160
S"'/ug/ug2k13/cse/satyendhra.dasara/Desktop/web2py/applications/project/models/meet.py'"
p161
sS'db'
p162
S'<DAL uri="sqlite://storage.sqlite">'
p163
sS'auth'
p164
S'<gluon.tools.Auth object>'
p165
sS'P'
S"<class 'gluon.html.P'>"
p166
sS'TFOOT'
p167
S"<class 'gluon.html.TFOOT'>"
p168
sS'XHTML'
p169
S"<class 'gluon.html.XHTML'>"
p170
sS'ON'
p171
g95
sS'OL'
p172
S"<class 'gluon.html.OL'>"
p173
sS'TEXTAREA'
p174
S"<class 'gluon.html.TEXTAREA'>"
p175
sS'MENU'
p176
S"<class 'gluon.html.MENU'>"
p177
sS'LOAD'
p178
S'<function LOAD>'
p179
sS'CODE'
p180
S"<class 'gluon.html.CODE'>"
p181
sS'HTTP'
p182
S"<class 'gluon.http.HTTP'>"
p183
sS'HR'
p184
S"<class 'gluon.html.HR'>"
p185
sS'IS_DATETIME'
p186
S"<class 'gluon.validators.IS_DATETIME'>"
p187
sS'HEAD'
p188
S"<class 'gluon.html.HEAD'>"
p189
sS'LABEL'
p190
S"<class 'gluon.html.LABEL'>"
p191
sS'CLEANUP'
p192
S"<class 'gluon.validators.CLEANUP'>"
p193
sS'plugins'
p194
S'<gluon.tools.PluginManager object>'
p195
sS'SELECT'
p196
S"<class 'gluon.html.SELECT'>"
p197
sS'use_janrain'
p198
S'<function use_janrain>'
p199
sS'CENTER'
p200
S"<class 'gluon.html.CENTER'>"
p201
sS'prettydate'
p202
S'<function prettydate>'
p203
sS'Crud'
p204
S"<class 'gluon.tools.Crud'>"
p205
sS'Auth'
p206
S"<class 'gluon.tools.Auth'>"
p207
sS'__builtins__'
p208
S"{'ArithmeticError': <type 'exceptions.ArithmeticError'>, 'AssertionError': <type 'exceptions.AssertionError'>, 'AttributeError': <type 'exceptions.AttributeError'>, 'BaseException': <type 'exceptions.BaseException'>, 'BufferError': <type 'exceptions.BufferError'>, 'BytesWarning': <type 'exceptions.BytesWarning'>, 'DeprecationWarning': <type 'exceptions.DeprecationWarning'>, 'EOFError': <type 'exceptions.EOFError'>, 'Ellipsis': Ellipsis, 'EnvironmentError': <type 'exceptions.EnvironmentError'>, ...}"
p209
sS'HTML'
p210
S"<class 'gluon.html.HTML'>"
p211
sS'SQLFORM'
p212
S"<class 'gluon.sqlhtml.SQLFORM'>"
p213
sS'EM'
p214
S"<class 'gluon.html.EM'>"
p215
sS'redirect'
p216
S'<function redirect>'
p217
sS'FIELDSET'
p218
S"<class 'gluon.html.FIELDSET'>"
p219
sS'IS_EQUAL_TO'
p220
S"<class 'gluon.validators.IS_EQUAL_TO'>"
p221
sS'embed64'
p222
S'<function embed64>'
p223
sS'IS_LIST_OF'
p224
S"<class 'gluon.validators.IS_LIST_OF'>"
p225
sS'__name__'
p226
S"'__restricted__'"
p227
sS'EMBED'
p228
S"<class 'gluon.html.EMBED'>"
p229
sS'FORM'
p230
S"<class 'gluon.html.FORM'>"
p231
sS'H2'
p232
S"<class 'gluon.html.H2'>"
p233
sS'H3'
p234
S"<class 'gluon.html.H3'>"
p235
sS'BUTTON'
p236
S"<class 'gluon.html.BUTTON'>"
p237
sS'H1'
p238
S"<class 'gluon.html.H1'>"
p239
sS'H6'
p240
S"<class 'gluon.html.H6'>"
p241
sS'H4'
p242
S"<class 'gluon.html.H4'>"
p243
sS'H5'
p244
S"<class 'gluon.html.H5'>"
p245
sS'UL'
p246
S"<class 'gluon.html.UL'>"
p247
sS'IS_UPPER'
p248
S"<class 'gluon.validators.IS_UPPER'>"
p249
sS'xmlescape'
p250
S'<function xmlescape>'
p251
sS'IS_TIME'
p252
S"<class 'gluon.validators.IS_TIME'>"
p253
sS'OPTION'
p254
S"<class 'gluon.html.OPTION'>"
p255
sS'TITLE'
p256
S"<class 'gluon.html.TITLE'>"
p257
sS'CRYPT'
p258
S"<class 'gluon.validators.CRYPT'>"
p259
sS'IS_EMPTY_OR'
p260
S"<class 'gluon.validators.IS_EMPTY_OR'>"
p261
sS'MARKMIN'
p262
S"<class 'gluon.html.MARKMIN'>"
p263
sS'INPUT'
p264
S"<class 'gluon.html.INPUT'>"
p265
sS'STRONG'
p266
S"<class 'gluon.html.STRONG'>"
p267
sS'COL'
p268
S"<class 'gluon.html.COL'>"
p269
sS'service'
p270
S'<gluon.tools.Service object>'
p271
sS'SCRIPT'
p272
S"<class 'gluon.html.SCRIPT'>"
p273
sS'TABLE'
p274
S"<class 'gluon.html.TABLE'>"
p275
sS'IS_IPV4'
p276
S"<class 'gluon.validators.IS_IPV4'>"
p277
sS'IS_LENGTH'
p278
S"<class 'gluon.validators.IS_LENGTH'>"
p279
sS'IS_IPV6'
p280
S"<class 'gluon.validators.IS_IPV6'>"
p281
sS'XML'
p282
S"<class 'gluon.html.XML'>"
p283
sS'B'
S"<class 'gluon.html.B'>"
p284
sS'IMG'
p285
S"<class 'gluon.html.IMG'>"
p286
sS'SQLTABLE'
p287
S"<class 'gluon.sqlhtml.SQLTABLE'>"
p288
sS'IS_MATCH'
p289
S"<class 'gluon.validators.IS_MATCH'>"
p290
sS'IS_ALPHANUMERIC'
p291
S"<class 'gluon.validators.IS_ALPHANUMERIC'>"
p292
sS'SPAN'
p293
S"<class 'gluon.html.SPAN'>"
p294
sS'IS_JSON'
p295
S"<class 'gluon.validators.IS_JSON'>"
p296
sS'IS_IPADDRESS'
p297
S"<class 'gluon.validators.IS_IPADDRESS'>"
p298
sS'IS_SLUG'
p299
S"<class 'gluon.validators.IS_SLUG'>"
p300
sS'BEAUTIFY'
p301
S"<class 'gluon.html.BEAUTIFY'>"
p302
sS'META'
p303
S"<class 'gluon.html.META'>"
p304
sS'IS_DATE'
p305
S"<class 'gluon.validators.IS_DATE'>"
p306
sS'IS_EMAIL'
p307
S"<class 'gluon.validators.IS_EMAIL'>"
p308
sS'IS_NOT_EMPTY'
p309
S"<class 'gluon.validators.IS_NOT_EMPTY'>"
p310
sg56
S"<Storage {'_vars': None, 'function': 'first', 'c...ra.dasara/Desktop/web2py/applications/project/'}>"
p311
sS'TBODY'
p312
S"<class 'gluon.html.TBODY'>"
p313
sS'CAT'
p314
S"<class 'gluon.html.CAT'>"
p315
sS'Field'
p316
S"<class 'gluon.dal.Field'>"
p317
sS'IS_LIST_OF_EMAILS'
p318
S"<class 'gluon.validators.IS_LIST_OF_EMAILS'>"
p319
sS'DIV'
p320
S"<class 'gluon.html.DIV'>"
p321
sS'LEGEND'
p322
S"<class 'gluon.html.LEGEND'>"
p323
sS'COLGROUP'
p324
S"<class 'gluon.html.COLGROUP'>"
p325
sS'DAL'
p326
S"<class 'gluon.dal.DAL'>"
p327
sS'TT'
p328
S"<class 'gluon.html.TT'>"
p329
sS'TR'
p330
S"<class 'gluon.html.TR'>"
p331
sS'__package__'
p332
S'None'
p333
sS'IFRAME'
p334
S"<class 'gluon.html.IFRAME'>"
p335
sS'TD'
p336
S"<class 'gluon.html.TD'>"
p337
sS'PluginManager'
p338
S"<class 'gluon.tools.PluginManager'>"
p339
sS'IS_URL'
p340
S"<class 'gluon.validators.IS_URL'>"
p341
sS'A'
S"<class 'gluon.html.A'>"
p342
sS'STYLE'
p343
S"<class 'gluon.html.STYLE'>"
p344
sS'IS_DATETIME_IN_RANGE'
p345
S"<class 'gluon.validators.IS_DATETIME_IN_RANGE'>"
p346
sS'IS_IMAGE'
p347
S"<class 'gluon.validators.IS_IMAGE'>"
p348
sS'I'
S"<class 'gluon.html.I'>"
p349
sS'crud'
p350
S'<gluon.tools.Crud object>'
p351
sS'IS_NOT_IN_DB'
p352
S"<class 'gluon.validators.IS_NOT_IN_DB'>"
p353
sg113
S"<Storage {'body': <cStringIO.StringO object at 0...mbda> at 0xae6119cc>, 'view': 'meet/first.html'}>"
p354
sS'THEAD'
p355
S"<class 'gluon.html.THEAD'>"
p356
sS'ANY_OF'
p357
S"<class 'gluon.validators.ANY_OF'>"
p358
sS'IS_NULL_OR'
p359
S"<class 'gluon.validators.IS_EMPTY_OR'>"
p360
sS'IS_FLOAT_IN_RANGE'
p361
S"<class 'gluon.validators.IS_FLOAT_IN_RANGE'>"
p362
sS'IS_EXPR'
p363
S"<class 'gluon.validators.IS_EXPR'>"
p364
sS'IS_IN_SET'
p365
S"<class 'gluon.validators.IS_IN_SET'>"
p366
sS'IS_UPLOAD_FILENAME'
p367
S"<class 'gluon.validators.IS_UPLOAD_FILENAME'>"
p368
sS'IS_DECIMAL_IN_RANGE'
p369
S"<class 'gluon.validators.IS_DECIMAL_IN_RANGE'>"
p370
sS'T'
S'<gluon.languages.translator object>'
p371
sssS'traceback'
p372
S'Traceback (most recent call last):\n  File "/ug/ug2k13/cse/satyendhra.dasara/Desktop/web2py/gluon/restricted.py", line 217, in restricted\n    exec ccode in environment\n  File "/ug/ug2k13/cse/satyendhra.dasara/Desktop/web2py/applications/project/models/meet.py", line 3, in <module>\n    DB = DAL("sqlite://storage.sqlite", auto_import=True, format=\'%(name)s\')\nTypeError: __init__() got an unexpected keyword argument \'format\'\n'
p373
s.