(dp1
S'output'
p2
S"<type 'exceptions.SyntaxError'> Field email does not belong to the table"
p3
sS'layer'
p4
S'/ug/ug2k13/cse/srikailash.gandebathula/Desktop/web2py/applications/project/controllers/meet.py'
p5
sS'code'
p6
S'import os\nimport time\ndef user():\n    """\n    exposes:\n    http://..../[app]/default/user/login\n    http://..../[app]/default/user/logout\n    http://..../[app]/default/user/register\n    http://..../[app]/default/user/profile\n    http://..../[app]/default/user/retrieve_password\n    http://..../[app]/default/user/change_password\n    http://..../[app]/default/user/manage_users (requires membership in\n    use @auth.requires_login()\n        @auth.requires_membership(\'group name\')\n        @auth.requires_permission(\'read\',\'table name\',record_id)\n    to decorate functions that need access control\n    """\n    return dict(form=auth())\n@auth.requires_login()\ndef mycal():\n    rows=db(db.t_appointment.created_by==auth.user.id).select()\n    return dict(rows=rows)\n\ndef index():\n\treturn dict()\n\n@auth.requires_login()\ndef first():\n    user=\'%(first_name)s\'%auth.user\n    print "first"\n    tb1=DB[\'user_list\']\n    test=DB().select(tb1.ALL ,orderby=tb1.id)\n    for i in test:\n\t    if i.user_name == user:\n\t    \tprint user is i.user_name\n\t    \tprint "user found in user_list"\n\t    \tredirect(URL(\'index\'))\n    tb1=DB[\'user_list\']\n    test=DB().select(tb1.ALL ,orderby=tb1.id)\n    tb2=DB[\'moderator_list\']\n    form = SQLFORM.factory(Field(\'meeting_name\',requires=IS_NOT_EMPTY()),Field(\'subject\',requires=IS_NOT_EMPTY()),Field(\'location\',requires=IS_NOT_EMPTY()),Field(\'date\'),Field(\'already_registered\',\'boolean\'))\n    if form.process().accepted:\n        name = form.vars.meeting_name\n\tif form.vars.already_registered == True:\n\t\tredirect(URL(\'fourth\',vars=dict(name=name)))\n\tname = form.vars.meeting_name\n\tprint "first",DB.tables\n\ttb=DB[\'meeting_list\']\n\ttb.insert(meeting_name=name,moderator_name=user,subject=form.vars.subject,location=form.vars.location,date=form.vars.date)\n\tif name not in DB.tables:\n\t    DB.define_table(name,Field(\'user_name\',\'string\',requires=IS_NOT_EMPTY()),\n\t\t\t    Field(\'body\',\'text\', requires=IS_NOT_EMPTY()),Field(\'time\',\'string\'),migrate=True)#,format=lambda r: r.name or \'anonymous\')\n\t    DB.define_table(name+\'_\'+\'names\',Field(\'user_name\',\'string\', requires=IS_NOT_EMPTY()),migrate=True)\n\t    DB.define_table(name+\'_\'+\'users\',Field(\'user_name\',\'string\', requires=IS_NOT_EMPTY()),Field(\'email\',requires=IS_EMAIL()),migrate=True)\n\t    DB.define_table(name+\'_\'+\'files\',Field(\'user_name\',\'string\', requires=IS_NOT_EMPTY()),Field(\'file\',\'upload\'))\n\tprint "&&&&&&&&&&&&&&&&&"\n        tb2.insert(user_name=user,meeting_name=name)\t\n\tredirect(URL(\'fourth\',vars=dict(name=name)))\n    return dict(form = form)\n\ndef second():\n     name = request.vars.name or redirect(URL(\'first\'))\n     tb = DB[name]\n     txt = DB().select(tb.ALL ,orderby=tb.id)\n     redirect(URL(\'fourth\',vars=dict(name=name)))\n\n\ndef fourth():\n    name = request.vars.name or redirect(URL(\'first\'))\n    tb = DB[name]\n    tb1 = DB[name+\'_\'+\'names\']\n    tb2 = DB[name+\'_\'+\'files\']\n    tb3 = DB[name+\'_\'+\'users\']\n    form1 = SQLFORM(tb2)\n    form = SQLFORM.factory(Field(\'user_name\',\'string\',requires=IS_IN_DB(DB,tb3.user_name)),Field(\'body\',\'text\',requires=IS_NOT_EMPTY()))\n    form3 = SQLFORM.factory(Field(\'meeting_name\',requires=IS_NOT_EMPTY()))\n\t\t\n    if form.process(formname=\'form\').accepted:\n\ttb.insert(user_name=form.vars.user_name,body=form.vars.body,time=time.strftime("%d-%a/%H:%M:%S"))\n        response.flash = T("Ur notes is updated!")\n    if form1.process(formname=\'form_one\').accepted:\n        response.flash = T("Ur file is uploaded!")\t\n    text = DB().select(tb.ALL ,orderby=tb.id)\n    names = DB().select(tb1.ALL,orderby=tb1.id)\n    if form3.process().accepted:\n    \tredirect (URL(\'emailusers/?meeting_name=\'+form3.vars.meeting_name))\n    return dict(text = text,name=name,names=names,form=form,form1=form1,form3=form3)\n\ndef startmeeting():\n    import time\n    session.b=time.strftime("%H:%M:%S")\n    a=session.b\n    name = request.vars.name\n    tb = DB[name]\n    tb1 = DB[name+\'_\'+\'names\']\n    text = DB().select(tb.ALL ,orderby=tb.id)\n    names = DB().select(tb1.ALL,orderby=tb1.id)\n    return dict(text = text,name=name,names=names,a=a)\n\n\ndef fileupload():\n\tform = SQLFORM.factory(Field(\'file\',\'upload\',uploadfolder=os.path.join(request.folder,\'uploads\')),Field(\'user_name\',requires=IS_NOT_EMPTY()))\n \tif form.vars.file and form.process().accepted:\n            response.flash = T("Ur file is uploaded!")\n\treturn dict(form=form)\n\ndef sixth():\n    name = request.get_vars[\'start\'].split(\'/\')\n    tb = DB[name[0]]\n    print name[0]\n    j = tb(int(name[1])) or redirect(URL(\'fourth\'))\n    print "sixth",j\n    return dict(name=j)\n\ndef seventh():\n    name = request.get_vars[\'start\'].split(\'/\')\n    tb = DB[name[0]]\n    tb.insert(body=name[1],user_name=name[2])\n    text = DB().select(tb.ALL ,orderby=tb.id)\n    name = name[0]\n    return dict(text=text,name=name)\n\ndef eight():\n    name = request.get_vars[\'start\'].split(\'/\')\n    tb = DB[name[0]]\n    txt = DB().select(tb.ALL ,orderby=tb.id)\n    return dict(text=txt,name=name[1])\n\ndef ninth():\n    print "*********"\n    user=request.args[0]\n    meeting=request.args[1]\n    print user +"to be added to" +meeting\n    table_name=meeting+\'_names\'\n    print "table name is"+table_name\n    tb = DB[table_name]\n    text = DB().select(tb.ALL ,orderby=tb.id)\n    print "text is"\n    flag=0\n    for i in text:\n        if i.user_name == user:\t\n\t    print "check22"\n\t    flag=1\n            print "flag set"\n    print "check3333"\n    session.flash=T("user added to the meeting")\t\n\n    if flag == 0:\t\n        print "flag is 0"\n\ttb.insert(user_name=user)\n    \tresponse.flash=T("user added to the meeting")\t\n    return dict(text = text) \n\n\n@auth.requires_login()\ndef tenth():\n\tuser=\'%(first_name)s\'%auth.user\n        tb1=DB[\'moderator_list\']\n\ttest=DB().select(tb1.ALL ,orderby=tb1.id)\n\tfor i in test:\n\t        if i.user_name == user:\n\t                redirect(URL(\'index\'))\n\tprint user\t\n\ttb2=DB[\'user_list\']\n\ttb2.insert(user_name=user)\n\ttable_name=user\n\tresponse.flash=T(\'check1\')\n\tif table_name not in DB.tables:\n             DB.define_table(table_name,Field(\'meetings\'))\n\tform = SQLFORM.factory(Field(\'register_to_meeting\',requires=IS_NOT_EMPTY()),Field(\'email\',requires=IS_EMAIL()))\n\tif form.process().accepted:\n\t\tname=form.vars.register_to_meeting\n\t\temailid=form.vars.email\n\t\tresponse.flash=T(name)\n\t\tresponse.flash=T(\'check2\')\n\t\tmeet_name=name+\'_\'+\'users\'\n\t\tif meet_name not in DB.tables:\n\t\t\tresponse.flash=T(\'Meeting not registered\')\n\t\telse:\n\t\t\ttb=DB[name+\'_\'+\'users\']\n\t\t\ttb.insert(user_name=user,email=emailid)\n\t\t\tresponse.flash=T(\'registration successful\')\n\t\tprint user+\'i am user\'\n\tsession.list=[]\n\ttemp=[]\n\ttb2=DB[\'meeting_list\']\n\ttext2=DB().select(tb2.ALL ,orderby=tb2.id)\n\tfor i in text2:\n\t\tprint i.meeting_list.meeting_name\n\t\tj=i.meeting_list.meeting_name+\'_users\'\n\t\ttb3=DB[j]\n\t\ttext3=DB().select(tb3.ALL ,orderby=tb3.id)\n\t\tfor p in text3:\n\t\t\tif p.user_name == user:\n\t\t\t\ttemp.append(user)\n\t\t\t\ttemp.append(i.meeting_list.meeting_name)\n\t\t\t\tsession.list.append(temp)\n\t\t\t\tprint user + " in " + i.meeting_list.meeting_name \n\n\treturn dict(form=form)\n\ndef search():\n\treturn dict()\n\ndef adduser():\n\tmeeting_name=request.vars.meeting_name\t\n\tsession.meeting_name=meeting_name\n\tprint "addusr",meeting_name\n\tmeeting_name=meeting_name+\'_users\'\n\ttb=DB[meeting_name]\n\ttext = DB().select(tb.ALL ,orderby=tb.id)\n\tsession.list=[]\n\tfor row in text:\n\t\tflag=0\n\t\tfor i in session.list:\n\t\t\tif i == row.user_name:\n\t\t\t\tflag=1\n\t        if flag is 0:\n\t\t\tprint row.user_name\n\t\t\tsession.list.append(row.user_name)\n        return dict()\n\ndef meets():\n\ttb=DB[\'meeting_list\']\n\ttext=DB().select(tb.ALL,orderby=tb.id)\n\treturn dict(text=text)\n\n\ndef showmeet():\n    name = request.get_vars[\'start\']\n    print "check",name\n    tb=DB[\'meeting_list\']\n    n=int(name) \n    print n \n    text=DB().select(tb.ALL,orderby=tb.id)\n    for i in text:\n\t    print i.meeting_list.id\n\t    if i.meeting_list.id == n:\t\n\t\tname=i\t\n\t        print "row found"\n    return dict(name=name)\n\ndef emailusers():\n\t user=\'%(first_name)s\'%auth.user\n\t meet=request.vars.meeting_name\n\t form1 = SQLFORM.factory(Field(\'body\',\'text\',requires=IS_NOT_EMPTY()))\n\t tb=DB[\'moderator_list\']\n\t test=DB().select(tb.ALL,orderby=tb.id)\n\t tb2=DB[meet]\n    \t text=DB().select(tb2.ALL,orderby=tb2.id)\n\t return dict(form1=form1,text=text,meeting_name=meet)\n\ndef email():\n\t   from gluon.tools import Mail\n           mail = Mail()\n           mail.settings.server = \'students.iiit.ac.in:25\'\n           mail.settings.sender = \'srikailash.gandebathula@students.iiit.ac.in\'\n           mail.settings.login = \'srikailash.gandebathula:24101995\'\n           mail.send(to=[\'srikailashukcs@gmail.com\'],\n\t\t\t                 subject=\'Hello World - Test email from web2py\',\n\t\t\t\t\t           # If reply_to is omitted, then mail.settings.sender is used\n\t\t\t\t\t           message=\'hi there\')\n\nresponse._vars=response._caller(tenth)\n'
p7
sS'snapshot'
p8
(dp9
S'exception'
p10
(dp11
S'__getslice__'
p12
S"<method-wrapper '__getslice__' of exceptions.SyntaxError object>"
p13
sS'text'
p14
S'None'
p15
sS'__str__'
p16
S"<method-wrapper '__str__' of exceptions.SyntaxError object>"
p17
sS'__reduce__'
p18
S'<built-in method __reduce__ of exceptions.SyntaxError object>'
p19
sS'__dict__'
p20
S'{}'
p21
sS'__sizeof__'
p22
S'<built-in method __sizeof__ of exceptions.SyntaxError object>'
p23
sS'__init__'
p24
S"<method-wrapper '__init__' of exceptions.SyntaxError object>"
p25
sS'__setattr__'
p26
S"<method-wrapper '__setattr__' of exceptions.SyntaxError object>"
p27
sS'__reduce_ex__'
p28
S'<built-in method __reduce_ex__ of exceptions.SyntaxError object>'
p29
sS'__new__'
p30
S'<built-in method __new__ of type object>'
p31
sS'__format__'
p32
S'<built-in method __format__ of exceptions.SyntaxError object>'
p33
sS'__class__'
p34
S"<type 'exceptions.SyntaxError'>"
p35
sS'filename'
p36
S'None'
p37
sS'lineno'
p38
S'None'
p39
sS'msg'
p40
S"'Field email does not belong to the table'"
p41
sS'__doc__'
p42
S"'Invalid syntax.'"
p43
sS'__getitem__'
p44
S"<method-wrapper '__getitem__' of exceptions.SyntaxError object>"
p45
sS'__setstate__'
p46
S'<built-in method __setstate__ of exceptions.SyntaxError object>'
p47
sS'__getattribute__'
p48
S"<method-wrapper '__getattribute__' of exceptions.SyntaxError object>"
p49
sS'print_file_and_line'
p50
S'None'
p51
sS'args'
p52
S"('Field email does not belong to the table',)"
p53
sS'__subclasshook__'
p54
S'<built-in method __subclasshook__ of type object>'
p55
sS'offset'
p56
S'None'
p57
sS'__unicode__'
p58
S'<built-in method __unicode__ of exceptions.SyntaxError object>'
p59
sS'__delattr__'
p60
S"<method-wrapper '__delattr__' of exceptions.SyntaxError object>"
p61
sS'__repr__'
p62
S"<method-wrapper '__repr__' of exceptions.SyntaxError object>"
p63
sS'__hash__'
p64
S"<method-wrapper '__hash__' of exceptions.SyntaxError object>"
p65
ssS'evalue'
p66
S'Field email does not belong to the table'
p67
sS'request'
p68
cgluon.html
XML_unpickle
p69
(S's\xe0`\x00\x00<div><table><tr><td style="font-weight:bold;vertical-align:top;">ajax</td><td style="vertical-align:top;">:</td><td><div>False</div></td></tr><tr><td style="font-weight:bold;vertical-align:top;">application</td><td style="vertical-align:top;">:</td><td><div>project</div></td></tr><tr><td style="font-weight:bold;vertical-align:top;">args</td><td style="vertical-align:top;">:</td><td><div><table></table></div></td></tr><tr><td style="font-weight:bold;vertical-align:top;">cid</td><td style="vertical-align:top;">:</td><td><div>None</div></td></tr><tr><td style="font-weight:bold;vertical-align:top;">client</td><td style="vertical-align:top;">:</td><td><div>127.0.0.1</div></td></tr><tr><td style="font-weight:bold;vertical-align:top;">controller</td><td style="vertical-align:top;">:</td><td><div>meet</div></td></tr><tr><td style="font-weight:bold;vertical-align:top;">cookies</td><td style="vertical-align:top;">:</td><td><div><table><tr><td style="font-weight:bold;vertical-align:top;">session_id_admin</td><td style="vertical-align:top;">:</td><td><div>127.0.0.1-fb784e35-931b-4e74-bd50-29aabeda1083<table><tr><td style="font-weight:bold;vertical-align:top;">comment</td><td style="vertical-align:top;">:</td><td><div></div></td></tr><tr><td style="font-weight:bold;vertical-align:top;">domain</td><td style="vertical-align:top;">:</td><td><div></div></td></tr><tr><td style="font-weight:bold;vertical-align:top;">expires</td><td style="vertical-align:top;">:</td><td><div></div></td></tr><tr><td style="font-weight:bold;vertical-align:top;">httponly</td><td style="vertical-align:top;">:</td><td><div></div></td></tr><tr><td style="font-weight:bold;vertical-align:top;">max-age</td><td style="vertical-align:top;">:</td><td><div></div></td></tr><tr><td style="font-weight:bold;vertical-align:top;">path</td><td style="vertical-align:top;">:</td><td><div></div></td></tr><tr><td style="font-weight:bold;vertical-align:top;">secure</td><td style="vertical-align:top;">:</td><td><div></div></td></tr><tr><td style="font-weight:bold;vertical-align:top;">version</td><td style="vertical-align:top;">:</td><td><div></div></td></tr></table></div></td></tr><tr><td style="font-weight:bold;vertical-align:top;">session_id_project</td><td style="vertical-align:top;">:</td><td><div>127.0.0.1-571a3233-9ca0-4ceb-a0ea-4df94c6a70dd<table><tr><td style="font-weight:bold;vertical-align:top;">comment</td><td style="vertical-align:top;">:</td><td><div></div></td></tr><tr><td style="font-weight:bold;vertical-align:top;">domain</td><td style="vertical-align:top;">:</td><td><div></div></td></tr><tr><td style="font-weight:bold;vertical-align:top;">expires</td><td style="vertical-align:top;">:</td><td><div></div></td></tr><tr><td style="font-weight:bold;vertical-align:top;">httponly</td><td style="vertical-align:top;">:</td><td><div></div></td></tr><tr><td style="font-weight:bold;vertical-align:top;">max-age</td><td style="vertical-align:top;">:</td><td><div></div></td></tr><tr><td style="font-weight:bold;vertical-align:top;">path</td><td style="vertical-align:top;">:</td><td><div></div></td></tr><tr><td style="font-weight:bold;vertical-align:top;">secure</td><td style="vertical-align:top;">:</td><td><div></div></td></tr><tr><td style="font-weight:bold;vertical-align:top;">version</td><td style="vertical-align:top;">:</td><td><div></div></td></tr></table></div></td></tr><tr><td style="font-weight:bold;vertical-align:top;">session_id_welcome</td><td style="vertical-align:top;">:</td><td><div>127.0.0.1-03470cad-904f-40cb-92cc-0ee3d902dcaf<table><tr><td style="font-weight:bold;vertical-align:top;">comment</td><td style="vertical-align:top;">:</td><td><div></div></td></tr><tr><td style="font-weight:bold;vertical-align:top;">domain</td><td style="vertical-align:top;">:</td><td><div></div></td></tr><tr><td style="font-weight:bold;vertical-align:top;">expires</td><td style="vertical-align:top;">:</td><td><div></div></td></tr><tr><td style="font-weight:bold;vertical-align:top;">httponly</td><td style="vertical-align:top;">:</td><td><div></div></td></tr><tr><td style="font-weight:bold;vertical-align:top;">max-age</td><td style="vertical-align:top;">:</td><td><div></div></td></tr><tr><td style="font-weight:bold;vertical-align:top;">path</td><td style="vertical-align:top;">:</td><td><div></div></td></tr><tr><td style="font-weight:bold;vertical-align:top;">secure</td><td style="vertical-align:top;">:</td><td><div></div></td></tr><tr><td style="font-weight:bold;vertical-align:top;">version</td><td style="vertical-align:top;">:</td><td><div></div></td></tr></table></div></td></tr></table></div></td></tr><tr><td style="font-weight:bold;vertical-align:top;">env</td><td style="vertical-align:top;">:</td><td><div><table><tr><td style="font-weight:bold;vertical-align:top;">CONTENT_LENGTH</td><td style="vertical-align:top;">:</td><td><div>603</div></td></tr><tr><td style="font-weight:bold;vertical-align:top;">CONTENT_TYPE</td><td style="vertical-align:top;">:</td><td><div>multipart/form-data; boundary=---------------------------73440296817161605761751178756</div></td></tr><tr><td style="font-weight:bold;vertical-align:top;">HTTP_ACCEPT</td><td style="vertical-align:top;">:</td><td><div>text/html,application/xhtml+xml,application/xml;q=0.9,*/*;q=0.8</div></td></tr><tr><td style="font-weight:bold;vertical-align:top;">HTTP_ACCEPT_ENCODING</td><td style="vertical-align:top;">:</td><td><div>gzip, deflate</div></td></tr><tr><td style="font-weight:bold;vertical-align:top;">HTTP_ACCEPT_LANGUAGE</td><td style="vertical-align:top;">:</td><td><div>en-US,en;q=0.5</div></td></tr><tr><td style="font-weight:bold;vertical-align:top;">HTTP_CONNECTION</td><td style="vertical-align:top;">:</td><td><div>keep-alive</div></td></tr><tr><td style="font-weight:bold;vertical-align:top;">HTTP_CONTENT_LENGTH</td><td style="vertical-align:top;">:</td><td><div>603</div></td></tr><tr><td style="font-weight:bold;vertical-align:top;">HTTP_CONTENT_TYPE</td><td style="vertical-align:top;">:</td><td><div>multipart/form-data; boundary=---------------------------73440296817161605761751178756</div></td></tr><tr><td style="font-weight:bold;vertical-align:top;">HTTP_COOKIE</td><td style="vertical-align:top;">:</td><td><div>session_id_welcome=127.0.0.1-03470cad-904f-40cb-92cc-0ee3d902dcaf; session_id_project=127.0.0.1-571a3233-9ca0-4ceb-a0ea-4df94c6a70dd; session_id_admin=127.0.0.1-fb784e35-931b-4e74-bd50-29aabeda1083</div></td></tr><tr><td style="font-weight:bold;vertical-align:top;">HTTP_HOST</td><td style="vertical-align:top;">:</td><td><div>127.0.0.1:8000</div></td></tr><tr><td style="font-weight:bold;vertical-align:top;">HTTP_REFERER</td><td style="vertical-align:top;">:</td><td><div>http://127.0.0.1:8000/project/meet/tenth</div></td></tr><tr><td style="font-weight:bold;vertical-align:top;">HTTP_USER_AGENT</td><td style="vertical-align:top;">:</td><td><div>Mozilla/5.0 (X11; Linux i686; rv:28.0) Gecko/20100101 Firefox/28.0</div></td></tr><tr><td style="font-weight:bold;vertical-align:top;">PATH_INFO</td><td style="vertical-align:top;">:</td><td><div>/project/meet/tenth</div></td></tr><tr><td style="font-weight:bold;vertical-align:top;">QUERY_STRING</td><td style="vertical-align:top;">:</td><td><div></div></td></tr><tr><td style="font-weight:bold;vertical-align:top;">REMOTE_ADDR</td><td style="vertical-align:top;">:</td><td><div>127.0.0.1</div></td></tr><tr><td style="font-weight:bold;vertical-align:top;">REMOTE_PORT</td><td style="vertical-align:top;">:</td><td><div>50732</div></td></tr><tr><td style="font-weight:bold;vertical-align:top;">REQUEST_METHOD</td><td style="vertical-align:top;">:</td><td><div>POST</div></td></tr><tr><td style="font-weight:bold;vertical-align:top;">SCRIPT_NAME</td><td style="vertical-align:top;">:</td><td><div></div></td></tr><tr><td style="font-weight:bold;vertical-align:top;">SERVER_NAME</td><td style="vertical-align:top;">:</td><td><div>CR13037</div></td></tr><tr><td style="font-weight:bold;vertical-align:top;">SERVER_PORT</td><td style="vertical-align:top;">:</td><td><div>8000</div></td></tr><tr><td style="font-weight:bold;vertical-align:top;">SERVER_PROTOCOL</td><td style="vertical-align:top;">:</td><td><div>HTTP/1.1</div></td></tr><tr><td style="font-weight:bold;vertical-align:top;">SERVER_SOFTWARE</td><td style="vertical-align:top;">:</td><td><div>Rocket 1.2.6</div></td></tr><tr><td style="font-weight:bold;vertical-align:top;">app_folders</td><td style="vertical-align:top;">:</td><td><div>set([&#x27;/ug/ug2k13/cse/srikailash.gandebathula/Desktop/web2py/applications/welcome/&#x27;, &#x27;/ug/ug2k13/cse/srikailash.gandebathula/Desktop/web2py/applications/admin/&#x27;, &#x27;/ug/ug2k13/cse/srikailash.gandebathula/Desktop/web2py/applications/project/&#x27;])</div></td></tr><tr><td style="font-weight:bold;vertical-align:top;">applications_parent</td><td style="vertical-align:top;">:</td><td><div>/ug/ug2k13/cse/srikailash.gandebathula/Desktop/web2py</div></td></tr><tr><td style="font-weight:bold;vertical-align:top;">cmd_args</td><td style="vertical-align:top;">:</td><td><div><table></table></div></td></tr><tr><td style="font-weight:bold;vertical-align:top;">cmd_options</td><td style="vertical-align:top;">:</td><td><div>&lt;Values at 0x8ae8a0c: {&#x27;verbose&#x27;: False, &#x27;ip&#x27;: &#x27;127.0.0.1&#x27;, &#x27;debuglevel&#x27;: 30, &#x27;with_scheduler&#x27;: False, &#x27;ips&#x27;: [&#x27;::1&#x27;], &#x27;shutdown_timeout&#x27;: 5, &#x27;taskbar&#x27;: False, &#x27;with_coverage&#x27;: False, &#x27;port&#x27;: 8000, &#x27;maxthreads&#x27;: None, &#x27;softcron&#x27;: False, &#x27;server_name&#x27;: &#x27;CR13037&#x27;, &#x27;bpython&#x27;: False, &#x27;nogui&#x27;: False, &#x27;pid_filename&#x27;: &#x27;httpserver.pid&#x27;, &#x27;extcron&#x27;: False, &#x27;runcron&#x27;: False, &#x27;run_system_tests&#x27;: False, &#x27;test&#x27;: None, &#x27;folder&#x27;: &#x27;/ug/ug2k13/cse/srikailash.gandebathula/Desktop/web2py&#x27;, &#x27;config&#x27;: &#x27;&#x27;, &#x27;minthreads&#x27;: None, &#x27;shell&#x27;: None, &#x27;run&#x27;: &#x27;&#x27;, &#x27;log_filename&#x27;: &#x27;httpserver.log&#x27;, &#x27;profiler_dir&#x27;: None, &#x27;args&#x27;: [&#x27;&#x27;], &#x27;socket_timeout&#x27;: 5, &#x27;ssl_ca_certificate&#x27;: None, &#x27;scheduler&#x27;: None, &#x27;interfaces&#x27;: None, &#x27;ssl_private_key&#x27;: &#x27;&#x27;, &#x27;scheduler_groups&#x27;: None, &#x27;password&#x27;: &#x27;&lt;ask&gt;&#x27;, &#x27;request_queue_size&#x27;: 5, &#x27;ssl_certificate&#x27;: &#x27;&#x27;, &#x27;cronjob&#x27;: False, &#x27;numthreads&#x27;: None, &#x27;quiet&#x27;: False, &#x27;import_models&#x27;: False, &#x27;timeout&#x27;: 10, &#x27;plain&#x27;: False, &#x27;nobanner&#x27;: False}&gt;</div></td></tr><tr><td style="font-weight:bold;vertical-align:top;">content_length</td><td style="vertical-align:top;">:</td><td><div>603</div></td></tr><tr><td style="font-weight:bold;vertical-align:top;">content_type</td><td style="vertical-align:top;">:</td><td><div>multipart/form-data; boundary=---------------------------73440296817161605761751178756</div></td></tr><tr><td style="font-weight:bold;vertical-align:top;">db_sessions</td><td style="vertical-align:top;">:</td><td><div>set([])</div></td></tr><tr><td style="font-weight:bold;vertical-align:top;">debugging</td><td style="vertical-align:top;">:</td><td><div>False</div></td></tr><tr><td style="font-weight:bold;vertical-align:top;">gluon_parent</td><td style="vertical-align:top;">:</td><td><div>/ug/ug2k13/cse/srikailash.gandebathula/Desktop/web2py</div></td></tr><tr><td style="font-weight:bold;vertical-align:top;">http_accept</td><td style="vertical-align:top;">:</td><td><div>text/html,application/xhtml+xml,application/xml;q=0.9,*/*;q=0.8</div></td></tr><tr><td style="font-weight:bold;vertical-align:top;">http_accept_encoding</td><td style="vertical-align:top;">:</td><td><div>gzip, deflate</div></td></tr><tr><td style="font-weight:bold;vertical-align:top;">http_accept_language</td><td style="vertical-align:top;">:</td><td><div>en-US,en;q=0.5</div></td></tr><tr><td style="font-weight:bold;vertical-align:top;">http_connection</td><td style="vertical-align:top;">:</td><td><div>keep-alive</div></td></tr><tr><td style="font-weight:bold;vertical-align:top;">http_content_length</td><td style="vertical-align:top;">:</td><td><div>603</div></td></tr><tr><td style="font-weight:bold;vertical-align:top;">http_content_type</td><td style="vertical-align:top;">:</td><td><div>multipart/form-data; boundary=---------------------------73440296817161605761751178756</div></td></tr><tr><td style="font-weight:bold;vertical-align:top;">http_cookie</td><td style="vertical-align:top;">:</td><td><div>session_id_welcome=127.0.0.1-03470cad-904f-40cb-92cc-0ee3d902dcaf; session_id_project=127.0.0.1-571a3233-9ca0-4ceb-a0ea-4df94c6a70dd; session_id_admin=127.0.0.1-fb784e35-931b-4e74-bd50-29aabeda1083</div></td></tr><tr><td style="font-weight:bold;vertical-align:top;">http_host</td><td style="vertical-align:top;">:</td><td><div>127.0.0.1:8000</div></td></tr><tr><td style="font-weight:bold;vertical-align:top;">http_referer</td><td style="vertical-align:top;">:</td><td><div>http://127.0.0.1:8000/project/meet/tenth</div></td></tr><tr><td style="font-weight:bold;vertical-align:top;">http_user_agent</td><td style="vertical-align:top;">:</td><td><div>Mozilla/5.0 (X11; Linux i686; rv:28.0) Gecko/20100101 Firefox/28.0</div></td></tr><tr><td style="font-weight:bold;vertical-align:top;">is_jython</td><td style="vertical-align:top;">:</td><td><div>False</div></td></tr><tr><td style="font-weight:bold;vertical-align:top;">is_pypy</td><td style="vertical-align:top;">:</td><td><div>False</div></td></tr><tr><td style="font-weight:bold;vertical-align:top;">is_source</td><td style="vertical-align:top;">:</td><td><div>True</div></td></tr><tr><td style="font-weight:bold;vertical-align:top;">local_hosts</td><td style="vertical-align:top;">:</td><td><div><table><tr><td><div>CR13037</div></td></tr><tr><td><div>::ffff:127.0.0.1</div></td></tr><tr><td><div>::1</div></td></tr><tr><td><div>10.3.10.63</div></td></tr><tr><td><div>localhost6.localdomain6</div></td></tr><tr><td><div>127.0.0.1</div></td></tr></table></div></td></tr><tr><td style="font-weight:bold;vertical-align:top;">path_info</td><td style="vertical-align:top;">:</td><td><div>/project/meet/tenth</div></td></tr><tr><td style="font-weight:bold;vertical-align:top;">query_string</td><td style="vertical-align:top;">:</td><td><div></div></td></tr><tr><td style="font-weight:bold;vertical-align:top;">remote_addr</td><td style="vertical-align:top;">:</td><td><div>127.0.0.1</div></td></tr><tr><td style="font-weight:bold;vertical-align:top;">remote_port</td><td style="vertical-align:top;">:</td><td><div>50732</div></td></tr><tr><td style="font-weight:bold;vertical-align:top;">request_method</td><td style="vertical-align:top;">:</td><td><div>POST</div></td></tr><tr><td style="font-weight:bold;vertical-align:top;">request_uri</td><td style="vertical-align:top;">:</td><td><div>/project/meet/tenth</div></td></tr><tr><td style="font-weight:bold;vertical-align:top;">script_name</td><td style="vertical-align:top;">:</td><td><div></div></td></tr><tr><td style="font-weight:bold;vertical-align:top;">server_name</td><td style="vertical-align:top;">:</td><td><div>CR13037</div></td></tr><tr><td style="font-weight:bold;vertical-align:top;">server_port</td><td style="vertical-align:top;">:</td><td><div>8000</div></td></tr><tr><td style="font-weight:bold;vertical-align:top;">server_protocol</td><td style="vertical-align:top;">:</td><td><div>HTTP/1.1</div></td></tr><tr><td style="font-weight:bold;vertical-align:top;">server_software</td><td style="vertical-align:top;">:</td><td><div>Rocket 1.2.6</div></td></tr><tr><td style="font-weight:bold;vertical-align:top;">web2py_path</td><td style="vertical-align:top;">:</td><td><div>/ug/ug2k13/cse/srikailash.gandebathula/Desktop/web2py</div></td></tr><tr><td style="font-weight:bold;vertical-align:top;">web2py_version</td><td style="vertical-align:top;">:</td><td><div>2.9.5-stable+timestamp.2014.03.16.02.35.39</div></td></tr><tr><td style="font-weight:bold;vertical-align:top;">wsgi.errors</td><td style="vertical-align:top;">:</td><td><div>&lt;open file &#x27;&lt;stderr&gt;&#x27;, mode &#x27;w&#x27; at 0xb77f40d0&gt;</div></td></tr><tr><td style="font-weight:bold;vertical-align:top;">wsgi.file_wrapper</td><td style="vertical-align:top;">:</td><td><div>&lt;class wsgiref.util.FileWrapper at 0x8aa2e9c&gt;</div></td></tr><tr><td style="font-weight:bold;vertical-align:top;">wsgi.input</td><td style="vertical-align:top;">:</td><td><div>&lt;socket._fileobject object at 0xaed238ec&gt;</div></td></tr><tr><td style="font-weight:bold;vertical-align:top;">wsgi.multiprocess</td><td style="vertical-align:top;">:</td><td><div>False</div></td></tr><tr><td style="font-weight:bold;vertical-align:top;">wsgi.multithread</td><td style="vertical-align:top;">:</td><td><div>True</div></td></tr><tr><td style="font-weight:bold;vertical-align:top;">wsgi.run_once</td><td style="vertical-align:top;">:</td><td><div>False</div></td></tr><tr><td style="font-weight:bold;vertical-align:top;">wsgi.url_scheme</td><td style="vertical-align:top;">:</td><td><div>http</div></td></tr><tr><td style="font-weight:bold;vertical-align:top;">wsgi.version</td><td style="vertical-align:top;">:</td><td><div><table><tr><td><div>1</div></td></tr><tr><td><div>0</div></td></tr></table></div></td></tr><tr><td style="font-weight:bold;vertical-align:top;">wsgi_errors</td><td style="vertical-align:top;">:</td><td><div>&lt;open file &#x27;&lt;stderr&gt;&#x27;, mode &#x27;w&#x27; at 0xb77f40d0&gt;</div></td></tr><tr><td style="font-weight:bold;vertical-align:top;">wsgi_file_wrapper</td><td style="vertical-align:top;">:</td><td><div>&lt;class wsgiref.util.FileWrapper at 0x8aa2e9c&gt;</div></td></tr><tr><td style="font-weight:bold;vertical-align:top;">wsgi_input</td><td style="vertical-align:top;">:</td><td><div>&lt;socket._fileobject object at 0xaed238ec&gt;</div></td></tr><tr><td style="font-weight:bold;vertical-align:top;">wsgi_multiprocess</td><td style="vertical-align:top;">:</td><td><div>False</div></td></tr><tr><td style="font-weight:bold;vertical-align:top;">wsgi_multithread</td><td style="vertical-align:top;">:</td><td><div>True</div></td></tr><tr><td style="font-weight:bold;vertical-align:top;">wsgi_run_once</td><td style="vertical-align:top;">:</td><td><div>False</div></td></tr><tr><td style="font-weight:bold;vertical-align:top;">wsgi_url_scheme</td><td style="vertical-align:top;">:</td><td><div>http</div></td></tr><tr><td style="font-weight:bold;vertical-align:top;">wsgi_version</td><td style="vertical-align:top;">:</td><td><div><table><tr><td><div>1</div></td></tr><tr><td><div>0</div></td></tr></table></div></td></tr></table></div></td></tr><tr><td style="font-weight:bold;vertical-align:top;">extension</td><td style="vertical-align:top;">:</td><td><div>html</div></td></tr><tr><td style="font-weight:bold;vertical-align:top;">folder</td><td style="vertical-align:top;">:</td><td><div>/ug/ug2k13/cse/srikailash.gandebathula/Desktop/web2py/applications/project/</div></td></tr><tr><td style="font-weight:bold;vertical-align:top;">function</td><td style="vertical-align:top;">:</td><td><div>tenth</div></td></tr><tr><td style="font-weight:bold;vertical-align:top;">global_settings</td><td style="vertical-align:top;">:</td><td><div><table><tr><td style="font-weight:bold;vertical-align:top;">app_folders</td><td style="vertical-align:top;">:</td><td><div>set([&#x27;/ug/ug2k13/cse/srikailash.gandebathula/Desktop/web2py/applications/welcome/&#x27;, &#x27;/ug/ug2k13/cse/srikailash.gandebathula/Desktop/web2py/applications/admin/&#x27;, &#x27;/ug/ug2k13/cse/srikailash.gandebathula/Desktop/web2py/applications/project/&#x27;])</div></td></tr><tr><td style="font-weight:bold;vertical-align:top;">applications_parent</td><td style="vertical-align:top;">:</td><td><div>/ug/ug2k13/cse/srikailash.gandebathula/Desktop/web2py</div></td></tr><tr><td style="font-weight:bold;vertical-align:top;">cmd_args</td><td style="vertical-align:top;">:</td><td><div><table></table></div></td></tr><tr><td style="font-weight:bold;vertical-align:top;">cmd_options</td><td style="vertical-align:top;">:</td><td><div>&lt;Values at 0x8ae8a0c: {&#x27;verbose&#x27;: False, &#x27;ip&#x27;: &#x27;127.0.0.1&#x27;, &#x27;debuglevel&#x27;: 30, &#x27;with_scheduler&#x27;: False, &#x27;ips&#x27;: [&#x27;::1&#x27;], &#x27;shutdown_timeout&#x27;: 5, &#x27;taskbar&#x27;: False, &#x27;with_coverage&#x27;: False, &#x27;port&#x27;: 8000, &#x27;maxthreads&#x27;: None, &#x27;softcron&#x27;: False, &#x27;server_name&#x27;: &#x27;CR13037&#x27;, &#x27;bpython&#x27;: False, &#x27;nogui&#x27;: False, &#x27;pid_filename&#x27;: &#x27;httpserver.pid&#x27;, &#x27;extcron&#x27;: False, &#x27;runcron&#x27;: False, &#x27;run_system_tests&#x27;: False, &#x27;test&#x27;: None, &#x27;folder&#x27;: &#x27;/ug/ug2k13/cse/srikailash.gandebathula/Desktop/web2py&#x27;, &#x27;config&#x27;: &#x27;&#x27;, &#x27;minthreads&#x27;: None, &#x27;shell&#x27;: None, &#x27;run&#x27;: &#x27;&#x27;, &#x27;log_filename&#x27;: &#x27;httpserver.log&#x27;, &#x27;profiler_dir&#x27;: None, &#x27;args&#x27;: [&#x27;&#x27;], &#x27;socket_timeout&#x27;: 5, &#x27;ssl_ca_certificate&#x27;: None, &#x27;scheduler&#x27;: None, &#x27;interfaces&#x27;: None, &#x27;ssl_private_key&#x27;: &#x27;&#x27;, &#x27;scheduler_groups&#x27;: None, &#x27;password&#x27;: &#x27;&lt;ask&gt;&#x27;, &#x27;request_queue_size&#x27;: 5, &#x27;ssl_certificate&#x27;: &#x27;&#x27;, &#x27;cronjob&#x27;: False, &#x27;numthreads&#x27;: None, &#x27;quiet&#x27;: False, &#x27;import_models&#x27;: False, &#x27;timeout&#x27;: 10, &#x27;plain&#x27;: False, &#x27;nobanner&#x27;: False}&gt;</div></td></tr><tr><td style="font-weight:bold;vertical-align:top;">db_sessions</td><td style="vertical-align:top;">:</td><td><div>set([])</div></td></tr><tr><td style="font-weight:bold;vertical-align:top;">debugging</td><td style="vertical-align:top;">:</td><td><div>False</div></td></tr><tr><td style="font-weight:bold;vertical-align:top;">gluon_parent</td><td style="vertical-align:top;">:</td><td><div>/ug/ug2k13/cse/srikailash.gandebathula/Desktop/web2py</div></td></tr><tr><td style="font-weight:bold;vertical-align:top;">is_jython</td><td style="vertical-align:top;">:</td><td><div>False</div></td></tr><tr><td style="font-weight:bold;vertical-align:top;">is_pypy</td><td style="vertical-align:top;">:</td><td><div>False</div></td></tr><tr><td style="font-weight:bold;vertical-align:top;">is_source</td><td style="vertical-align:top;">:</td><td><div>True</div></td></tr><tr><td style="font-weight:bold;vertical-align:top;">local_hosts</td><td style="vertical-align:top;">:</td><td><div><table><tr><td><div>CR13037</div></td></tr><tr><td><div>::ffff:127.0.0.1</div></td></tr><tr><td><div>::1</div></td></tr><tr><td><div>10.3.10.63</div></td></tr><tr><td><div>localhost6.localdomain6</div></td></tr><tr><td><div>127.0.0.1</div></td></tr></table></div></td></tr><tr><td style="font-weight:bold;vertical-align:top;">web2py_version</td><td style="vertical-align:top;">:</td><td><div>2.9.5-stable+timestamp.2014.03.16.02.35.39</div></td></tr></table></div></td></tr><tr><td style="font-weight:bold;vertical-align:top;">is_https</td><td style="vertical-align:top;">:</td><td><div>False</div></td></tr><tr><td style="font-weight:bold;vertical-align:top;">is_local</td><td style="vertical-align:top;">:</td><td><div>True</div></td></tr><tr><td style="font-weight:bold;vertical-align:top;">is_restful</td><td style="vertical-align:top;">:</td><td><div>False</div></td></tr><tr><td style="font-weight:bold;vertical-align:top;">now</td><td style="vertical-align:top;">:</td><td><div>datetime.datetime(2014, 4, 27, 11, 2, 33, 680348)</div></td></tr><tr><td style="font-weight:bold;vertical-align:top;">raw_args</td><td style="vertical-align:top;">:</td><td><div></div></td></tr><tr><td style="font-weight:bold;vertical-align:top;">raw_extension</td><td style="vertical-align:top;">:</td><td><div>None</div></td></tr><tr><td style="font-weight:bold;vertical-align:top;">url</td><td style="vertical-align:top;">:</td><td><div>/project/meet/tenth</div></td></tr><tr><td style="font-weight:bold;vertical-align:top;">utcnow</td><td style="vertical-align:top;">:</td><td><div>datetime.datetime(2014, 4, 27, 5, 32, 33, 680371)</div></td></tr><tr><td style="font-weight:bold;vertical-align:top;">uuid</td><td style="vertical-align:top;">:</td><td><div>project/127.0.0.1.2014-04-27.11-02-33.fcc3fbfb-f7c7-4176-bd22-1f804855a15e</div></td></tr><tr><td style="font-weight:bold;vertical-align:top;">wsgi</td><td style="vertical-align:top;">:</td><td><div>&lt;gluon.main.LazyWSGI object at 0x99286cc&gt;</div></td></tr></table></div>'
tRp70
sS'frames'
p71
(lp72
(dp73
S'file'
p74
S'/ug/ug2k13/cse/srikailash.gandebathula/Desktop/web2py/gluon/restricted.py'
p75
sS'dump'
p76
(dp77
S'environment'
p78
S"{'A': <class 'gluon.html.A'>, 'ANY_OF': <class 'gluon.validators.ANY_OF'>, 'Auth': <class 'gluon.tools.Auth'>, 'B': <class 'gluon.html.B'>, 'BEAUTIFY': <class 'gluon.html.BEAUTIFY'>, 'BODY': <class 'gluon.html.BODY'>, 'BR': <class 'gluon.html.BR'>, 'BUTTON': <class 'gluon.html.BUTTON'>, 'CAT': <class 'gluon.html.CAT'>, 'CENTER': <class 'gluon.html.CENTER'>, ...}"
p79
sS'ccode'
p80
S'<code object <module> at 0x8db8260, file "/ug/ug...pplications/project/controllers/meet.py", line 1>'
p81
ssS'lnum'
p82
I220
sS'lines'
p83
(dp84
I224
S'        # do not encapsulate (obfuscate) the original RestrictedError'
p85
sI215
S'    try:'
p86
sI216
S'        if isinstance(code, types.CodeType):'
p87
sI217
S'            ccode = code'
p88
sI218
S'        else:'
p89
sI219
S'            ccode = compile2(code, layer)'
p90
sI220
S'        exec ccode in environment'
p91
sI221
S'    except HTTP:'
p92
sI222
S'        raise'
p93
sI223
S'    except RestrictedError:'
p94
ssS'call'
p95
S'(code=\'import os\\nimport time\\ndef user():\\n    """\\n    ex... there\\\')\\n\\nresponse._vars=response._caller(tenth)\\n\', environment={\'A\': <class \'gluon.html.A\'>, \'ANY_OF\': <class \'gluon.validators.ANY_OF\'>, \'Auth\': <class \'gluon.tools.Auth\'>, \'B\': <class \'gluon.html.B\'>, \'BEAUTIFY\': <class \'gluon.html.BEAUTIFY\'>, \'BODY\': <class \'gluon.html.BODY\'>, \'BR\': <class \'gluon.html.BR\'>, \'BUTTON\': <class \'gluon.html.BUTTON\'>, \'CAT\': <class \'gluon.html.CAT\'>, \'CENTER\': <class \'gluon.html.CENTER\'>, ...}, layer=\'/ug/ug2k13/cse/srikailash.gandebathula/Desktop/web2py/applications/project/controllers/meet.py\')'
p96
sS'func'
p97
S'restricted'
p98
sa(dp99
g74
S'/ug/ug2k13/cse/srikailash.gandebathula/Desktop/web2py/applications/project/controllers/meet.py'
p100
sg76
(dp101
sg82
I264
sg83
(dp102
I256
S"           mail.settings.server = 'students.iiit.ac.in:25'"
p103
sI257
S"           mail.settings.sender = 'srikailash.gandebathula@students.iiit.ac.in'"
p104
sI258
S"           mail.settings.login = 'srikailash.gandebathula:24101995'"
p105
sI259
S"           mail.send(to=['srikailashukcs@gmail.com'],"
p106
sI260
S"\t\t\t                 subject='Hello World - Test email from web2py',"
p107
sI261
S'\t\t\t\t\t           # If reply_to is omitted, then mail.settings.sender is used'
p108
sI262
S"\t\t\t\t\t           message='hi there')"
p109
sI253
S'def email():'
p110
sI254
S'\t   from gluon.tools import Mail'
p111
sI255
S'           mail = Mail()'
p112
ssg95
S'()'
p113
sg97
S'<module>'
p114
sa(dp115
g74
S'/ug/ug2k13/cse/srikailash.gandebathula/Desktop/web2py/gluon/globals.py'
p116
sg76
(dp117
S'self'
p118
S'undefined'
p119
sS'f'
S'<function tenth>'
p120
ssg82
I385
sg83
(dp121
I384
S'        self._vars = None'
p122
sI385
S'        self._caller = lambda f: f()'
p123
sI386
S'        self._view_environment = None'
p124
sI387
S'        self._custom_commit = None'
p125
sI388
S'        self._custom_rollback = None'
p126
sI389
S''
sI380
S'        self.menu = []             # used by the default view layout'
p127
sI381
S'        self.files = []            # used by web2py_ajax.html'
p128
sI382
S'        self.generic_patterns = []  # patterns to allow generic views'
p129
sI383
S"        self.delimiters = ('{{', '}}')"
p130
ssg95
S'(f=<function tenth>)'
p131
sg97
S'<lambda>'
p132
sa(dp133
g74
S'/ug/ug2k13/cse/srikailash.gandebathula/Desktop/web2py/gluon/tools.py'
p134
sg76
(dp135
S'action'
p136
S'<function tenth>'
p137
sS'a'
S'()'
p138
sS'b'
g21
ssg82
I3287
sg83
(dp139
I3282
S'                    flag = condition'
p140
sI3283
S'                if not flag:'
p141
sI3284
S'                    current.session.flash = self.messages.access_denied'
p142
sI3285
S'                    return call_or_redirect('
p143
sI3286
S'                        self.settings.on_failed_authorization)'
p144
sI3287
S'                return action(*a, **b)'
p145
sI3288
S'            f.__doc__ = action.__doc__'
p146
sI3289
S'            f.__name__ = action.__name__'
p147
sI3290
S'            f.__dict__.update(action.__dict__)'
p148
sI3291
S'            return f'
p149
ssg95
S'(*a=(), **b={})'
p150
sg97
S'f'
sa(dp151
g74
S'/ug/ug2k13/cse/srikailash.gandebathula/Desktop/web2py/applications/project/controllers/meet.py'
p152
sg76
(dp153
S'emailid'
p154
S"'srikailashukcs@gmail.com'"
p155
sS'global email'
p156
S'<function email>'
p157
sS'tb'
p158
S'<Table stack_users (id,user_name)>'
p159
sS'tb.insert'
p160
S'<bound method Table.insert of <Table stack_users (id,user_name)>>'
p161
sS'user'
p162
S"'t'"
p163
sS'user_name'
p164
g119
ssg82
I181
sg83
(dp165
I176
S"\t\tmeet_name=name+'_'+'users'"
p166
sI177
S'\t\tif meet_name not in DB.tables:'
p167
sI178
S"\t\t\tresponse.flash=T('Meeting not registered')"
p168
sI179
S'\t\telse:'
p169
sI180
S"\t\t\ttb=DB[name+'_'+'users']"
p170
sI181
S'\t\t\ttb.insert(user_name=user,email=emailid)'
p171
sI182
S"\t\t\tresponse.flash=T('registration successful')"
p172
sI183
S"\t\tprint user+'i am user'"
p173
sI184
S'\tsession.list=[]'
p174
sI185
S'\ttemp=[]'
p175
ssg95
S'()'
p176
sg97
S'tenth'
p177
sa(dp178
g74
S'/ug/ug2k13/cse/srikailash.gandebathula/Desktop/web2py/gluon/dal.py'
p179
sg76
(dp180
S'self._listify'
p181
S'<bound method Table._listify of <Table stack_users (id,user_name)>>'
p182
sS'fields'
p183
S"{'email': 'srikailashukcs@gmail.com', 'user_name': 't'}"
p184
sS'self'
p185
S'<Table stack_users (id,user_name)>'
p186
sS'ret'
p187
g119
sS'self._db._adapter'
p188
S'<gluon.dal.SQLiteAdapter object>'
p189
sS'self._db._adapter.insert'
p190
S'<bound method SQLiteAdapter.insert of <gluon.dal.SQLiteAdapter object>>'
p191
sS'self._db'
p192
S'<DAL uri="sqlite://storage.sqlite">'
p193
ssg82
I9114
sg83
(dp194
I9109
S''
sI9110
S'    def insert(self, **fields):'
p195
sI9111
S'        fields = self._defaults(fields)'
p196
sI9112
S'        self._attempt_upload(fields)'
p197
sI9113
S'        if any(f(fields) for f in self._before_insert): return 0'
p198
sI9114
S'        ret =  self._db._adapter.insert(self, self._listify(fields))'
p199
sI9115
S'        if ret and self._after_insert:'
p200
sI9116
S'            fields = Row(fields)'
p201
sI9117
S'            [f(fields,ret) for f in self._after_insert]'
p202
sI9118
S'        return ret'
p203
ssg95
S"(self=<Table stack_users (id,user_name)>, **fields={'email': 'srikailashukcs@gmail.com', 'user_name': 't'})"
p204
sg97
S'insert'
p205
sa(dp206
g74
S'/ug/ug2k13/cse/srikailash.gandebathula/Desktop/web2py/gluon/dal.py'
p207
sg76
(dp208
S'name'
p209
S"'email'"
p210
ssg82
I9040
sg83
(dp211
I9035
S'        # store all fields passed as input in new_fields'
p212
sI9036
S'        for name in fields:'
p213
sI9037
S'            if not name in self.fields:'
p214
sI9038
S"                if name != 'id':"
p215
sI9039
S'                    raise SyntaxError('
p216
sI9040
S"                        'Field %s does not belong to the table' % name)"
p217
sI9041
S'            else:'
p218
sI9042
S'                field = self[name]'
p219
sI9043
S'                value = fields[name]'
p220
sI9044
S'                if field.filter_in:'
p221
ssg95
S"(self=<Table stack_users (id,user_name)>, fields={'email': 'srikailashukcs@gmail.com', 'user_name': 't'}, update=False)"
p222
sg97
S'_listify'
p223
sasS'pyver'
p224
S'Python 2.7: /usr/bin/python (prefix: /usr)'
p225
sS'session'
p226
g69
(S's\x16S\x00\x00<div><table><tr><td style="font-weight:bold;vertical-align:top;">auth</td><td style="vertical-align:top;">:</td><td><div><table><tr><td style="font-weight:bold;vertical-align:top;">expiration</td><td style="vertical-align:top;">:</td><td><div>3600</div></td></tr><tr><td style="font-weight:bold;vertical-align:top;">hmac_key</td><td style="vertical-align:top;">:</td><td><div>f94a4562-9580-418f-8acb-83bb3df1ac1f</div></td></tr><tr><td style="font-weight:bold;vertical-align:top;">last_visit</td><td style="vertical-align:top;">:</td><td><div>datetime.datetime(2014, 4, 27, 11, 2, 24, 587749)</div></td></tr><tr><td style="font-weight:bold;vertical-align:top;">remember</td><td style="vertical-align:top;">:</td><td><div>False</div></td></tr><tr><td style="font-weight:bold;vertical-align:top;">user</td><td style="vertical-align:top;">:</td><td><div><table><tr><td style="font-weight:bold;vertical-align:top;">created_on</td><td style="vertical-align:top;">:</td><td><div>datetime.datetime(2014, 4, 26, 19, 6, 4)</div></td></tr><tr><td style="font-weight:bold;vertical-align:top;">email</td><td style="vertical-align:top;">:</td><td><div>t@eee.com</div></td></tr><tr><td style="font-weight:bold;vertical-align:top;">first_name</td><td style="vertical-align:top;">:</td><td><div>t</div></td></tr><tr><td style="font-weight:bold;vertical-align:top;">id</td><td style="vertical-align:top;">:</td><td><div>14L</div></td></tr><tr><td style="font-weight:bold;vertical-align:top;">last_name</td><td style="vertical-align:top;">:</td><td><div>t</div></td></tr><tr><td style="font-weight:bold;vertical-align:top;">modified_on</td><td style="vertical-align:top;">:</td><td><div>datetime.datetime(2014, 4, 26, 19, 6, 4)</div></td></tr><tr><td style="font-weight:bold;vertical-align:top;">registration_id</td><td style="vertical-align:top;">:</td><td><div></div></td></tr><tr><td style="font-weight:bold;vertical-align:top;">registration_key</td><td style="vertical-align:top;">:</td><td><div></div></td></tr><tr><td style="font-weight:bold;vertical-align:top;">reset_password_key</td><td style="vertical-align:top;">:</td><td><div></div></td></tr><tr><td style="font-weight:bold;vertical-align:top;">username</td><td style="vertical-align:top;">:</td><td><div>t</div></td></tr></table></div></td></tr><tr><td style="font-weight:bold;vertical-align:top;">user_groups</td><td style="vertical-align:top;">:</td><td><div><table><tr><td style="font-weight:bold;vertical-align:top;">14</td><td style="vertical-align:top;">:</td><td><div>user_14</div></td></tr></table></div></td></tr></table></div></td></tr><tr><td style="font-weight:bold;vertical-align:top;">flash</td><td style="vertical-align:top;">:</td><td><div>None</div></td></tr><tr><td style="font-weight:bold;vertical-align:top;">list</td><td style="vertical-align:top;">:</td><td><div><table><tr><td><div><table><tr><td><div>t</div></td></tr><tr><td><div>w</div></td></tr><tr><td><div>t</div></td></tr><tr><td><div>w</div></td></tr><tr><td><div>t</div></td></tr><tr><td><div>w</div></td></tr><tr><td><div>t</div></td></tr><tr><td><div>w</div></td></tr><tr><td><div>t</div></td></tr><tr><td><div>w</div></td></tr><tr><td><div>t</div></td></tr><tr><td><div>w</div></td></tr><tr><td><div>t</div></td></tr><tr><td><div>w</div></td></tr><tr><td><div>t</div></td></tr><tr><td><div>w</div></td></tr><tr><td><div>t</div></td></tr><tr><td><div>w</div></td></tr><tr><td><div>t</div></td></tr><tr><td><div>w</div></td></tr><tr><td><div>t</div></td></tr><tr><td><div>h</div></td></tr><tr><td><div>t</div></td></tr><tr><td><div>h</div></td></tr><tr><td><div>t</div></td></tr><tr><td><div>stack</div></td></tr><tr><td><div>t</div></td></tr><tr><td><div>stack</div></td></tr><tr><td><div>t</div></td></tr><tr><td><div>stack</div></td></tr><tr><td><div>t</div></td></tr><tr><td><div>stack</div></td></tr><tr><td><div>t</div></td></tr><tr><td><div>ppo</div></td></tr></table></div></td></tr><tr><td><div><table><tr><td><div>t</div></td></tr><tr><td><div>w</div></td></tr><tr><td><div>t</div></td></tr><tr><td><div>w</div></td></tr><tr><td><div>t</div></td></tr><tr><td><div>w</div></td></tr><tr><td><div>t</div></td></tr><tr><td><div>w</div></td></tr><tr><td><div>t</div></td></tr><tr><td><div>w</div></td></tr><tr><td><div>t</div></td></tr><tr><td><div>w</div></td></tr><tr><td><div>t</div></td></tr><tr><td><div>w</div></td></tr><tr><td><div>t</div></td></tr><tr><td><div>w</div></td></tr><tr><td><div>t</div></td></tr><tr><td><div>w</div></td></tr><tr><td><div>t</div></td></tr><tr><td><div>w</div></td></tr><tr><td><div>t</div></td></tr><tr><td><div>h</div></td></tr><tr><td><div>t</div></td></tr><tr><td><div>h</div></td></tr><tr><td><div>t</div></td></tr><tr><td><div>stack</div></td></tr><tr><td><div>t</div></td></tr><tr><td><div>stack</div></td></tr><tr><td><div>t</div></td></tr><tr><td><div>stack</div></td></tr><tr><td><div>t</div></td></tr><tr><td><div>stack</div></td></tr><tr><td><div>t</div></td></tr><tr><td><div>ppo</div></td></tr></table></div></td></tr><tr><td><div><table><tr><td><div>t</div></td></tr><tr><td><div>w</div></td></tr><tr><td><div>t</div></td></tr><tr><td><div>w</div></td></tr><tr><td><div>t</div></td></tr><tr><td><div>w</div></td></tr><tr><td><div>t</div></td></tr><tr><td><div>w</div></td></tr><tr><td><div>t</div></td></tr><tr><td><div>w</div></td></tr><tr><td><div>t</div></td></tr><tr><td><div>w</div></td></tr><tr><td><div>t</div></td></tr><tr><td><div>w</div></td></tr><tr><td><div>t</div></td></tr><tr><td><div>w</div></td></tr><tr><td><div>t</div></td></tr><tr><td><div>w</div></td></tr><tr><td><div>t</div></td></tr><tr><td><div>w</div></td></tr><tr><td><div>t</div></td></tr><tr><td><div>h</div></td></tr><tr><td><div>t</div></td></tr><tr><td><div>h</div></td></tr><tr><td><div>t</div></td></tr><tr><td><div>stack</div></td></tr><tr><td><div>t</div></td></tr><tr><td><div>stack</div></td></tr><tr><td><div>t</div></td></tr><tr><td><div>stack</div></td></tr><tr><td><div>t</div></td></tr><tr><td><div>stack</div></td></tr><tr><td><div>t</div></td></tr><tr><td><div>ppo</div></td></tr></table></div></td></tr><tr><td><div><table><tr><td><div>t</div></td></tr><tr><td><div>w</div></td></tr><tr><td><div>t</div></td></tr><tr><td><div>w</div></td></tr><tr><td><div>t</div></td></tr><tr><td><div>w</div></td></tr><tr><td><div>t</div></td></tr><tr><td><div>w</div></td></tr><tr><td><div>t</div></td></tr><tr><td><div>w</div></td></tr><tr><td><div>t</div></td></tr><tr><td><div>w</div></td></tr><tr><td><div>t</div></td></tr><tr><td><div>w</div></td></tr><tr><td><div>t</div></td></tr><tr><td><div>w</div></td></tr><tr><td><div>t</div></td></tr><tr><td><div>w</div></td></tr><tr><td><div>t</div></td></tr><tr><td><div>w</div></td></tr><tr><td><div>t</div></td></tr><tr><td><div>h</div></td></tr><tr><td><div>t</div></td></tr><tr><td><div>h</div></td></tr><tr><td><div>t</div></td></tr><tr><td><div>stack</div></td></tr><tr><td><div>t</div></td></tr><tr><td><div>stack</div></td></tr><tr><td><div>t</div></td></tr><tr><td><div>stack</div></td></tr><tr><td><div>t</div></td></tr><tr><td><div>stack</div></td></tr><tr><td><div>t</div></td></tr><tr><td><div>ppo</div></td></tr></table></div></td></tr><tr><td><div><table><tr><td><div>t</div></td></tr><tr><td><div>w</div></td></tr><tr><td><div>t</div></td></tr><tr><td><div>w</div></td></tr><tr><td><div>t</div></td></tr><tr><td><div>w</div></td></tr><tr><td><div>t</div></td></tr><tr><td><div>w</div></td></tr><tr><td><div>t</div></td></tr><tr><td><div>w</div></td></tr><tr><td><div>t</div></td></tr><tr><td><div>w</div></td></tr><tr><td><div>t</div></td></tr><tr><td><div>w</div></td></tr><tr><td><div>t</div></td></tr><tr><td><div>w</div></td></tr><tr><td><div>t</div></td></tr><tr><td><div>w</div></td></tr><tr><td><div>t</div></td></tr><tr><td><div>w</div></td></tr><tr><td><div>t</div></td></tr><tr><td><div>h</div></td></tr><tr><td><div>t</div></td></tr><tr><td><div>h</div></td></tr><tr><td><div>t</div></td></tr><tr><td><div>stack</div></td></tr><tr><td><div>t</div></td></tr><tr><td><div>stack</div></td></tr><tr><td><div>t</div></td></tr><tr><td><div>stack</div></td></tr><tr><td><div>t</div></td></tr><tr><td><div>stack</div></td></tr><tr><td><div>t</div></td></tr><tr><td><div>ppo</div></td></tr></table></div></td></tr><tr><td><div><table><tr><td><div>t</div></td></tr><tr><td><div>w</div></td></tr><tr><td><div>t</div></td></tr><tr><td><div>w</div></td></tr><tr><td><div>t</div></td></tr><tr><td><div>w</div></td></tr><tr><td><div>t</div></td></tr><tr><td><div>w</div></td></tr><tr><td><div>t</div></td></tr><tr><td><div>w</div></td></tr><tr><td><div>t</div></td></tr><tr><td><div>w</div></td></tr><tr><td><div>t</div></td></tr><tr><td><div>w</div></td></tr><tr><td><div>t</div></td></tr><tr><td><div>w</div></td></tr><tr><td><div>t</div></td></tr><tr><td><div>w</div></td></tr><tr><td><div>t</div></td></tr><tr><td><div>w</div></td></tr><tr><td><div>t</div></td></tr><tr><td><div>h</div></td></tr><tr><td><div>t</div></td></tr><tr><td><div>h</div></td></tr><tr><td><div>t</div></td></tr><tr><td><div>stack</div></td></tr><tr><td><div>t</div></td></tr><tr><td><div>stack</div></td></tr><tr><td><div>t</div></td></tr><tr><td><div>stack</div></td></tr><tr><td><div>t</div></td></tr><tr><td><div>stack</div></td></tr><tr><td><div>t</div></td></tr><tr><td><div>ppo</div></td></tr></table></div></td></tr><tr><td><div><table><tr><td><div>t</div></td></tr><tr><td><div>w</div></td></tr><tr><td><div>t</div></td></tr><tr><td><div>w</div></td></tr><tr><td><div>t</div></td></tr><tr><td><div>w</div></td></tr><tr><td><div>t</div></td></tr><tr><td><div>w</div></td></tr><tr><td><div>t</div></td></tr><tr><td><div>w</div></td></tr><tr><td><div>t</div></td></tr><tr><td><div>w</div></td></tr><tr><td><div>t</div></td></tr><tr><td><div>w</div></td></tr><tr><td><div>t</div></td></tr><tr><td><div>w</div></td></tr><tr><td><div>t</div></td></tr><tr><td><div>w</div></td></tr><tr><td><div>t</div></td></tr><tr><td><div>w</div></td></tr><tr><td><div>t</div></td></tr><tr><td><div>h</div></td></tr><tr><td><div>t</div></td></tr><tr><td><div>h</div></td></tr><tr><td><div>t</div></td></tr><tr><td><div>stack</div></td></tr><tr><td><div>t</div></td></tr><tr><td><div>stack</div></td></tr><tr><td><div>t</div></td></tr><tr><td><div>stack</div></td></tr><tr><td><div>t</div></td></tr><tr><td><div>stack</div></td></tr><tr><td><div>t</div></td></tr><tr><td><div>ppo</div></td></tr></table></div></td></tr><tr><td><div><table><tr><td><div>t</div></td></tr><tr><td><div>w</div></td></tr><tr><td><div>t</div></td></tr><tr><td><div>w</div></td></tr><tr><td><div>t</div></td></tr><tr><td><div>w</div></td></tr><tr><td><div>t</div></td></tr><tr><td><div>w</div></td></tr><tr><td><div>t</div></td></tr><tr><td><div>w</div></td></tr><tr><td><div>t</div></td></tr><tr><td><div>w</div></td></tr><tr><td><div>t</div></td></tr><tr><td><div>w</div></td></tr><tr><td><div>t</div></td></tr><tr><td><div>w</div></td></tr><tr><td><div>t</div></td></tr><tr><td><div>w</div></td></tr><tr><td><div>t</div></td></tr><tr><td><div>w</div></td></tr><tr><td><div>t</div></td></tr><tr><td><div>h</div></td></tr><tr><td><div>t</div></td></tr><tr><td><div>h</div></td></tr><tr><td><div>t</div></td></tr><tr><td><div>stack</div></td></tr><tr><td><div>t</div></td></tr><tr><td><div>stack</div></td></tr><tr><td><div>t</div></td></tr><tr><td><div>stack</div></td></tr><tr><td><div>t</div></td></tr><tr><td><div>stack</div></td></tr><tr><td><div>t</div></td></tr><tr><td><div>ppo</div></td></tr></table></div></td></tr><tr><td><div><table><tr><td><div>t</div></td></tr><tr><td><div>w</div></td></tr><tr><td><div>t</div></td></tr><tr><td><div>w</div></td></tr><tr><td><div>t</div></td></tr><tr><td><div>w</div></td></tr><tr><td><div>t</div></td></tr><tr><td><div>w</div></td></tr><tr><td><div>t</div></td></tr><tr><td><div>w</div></td></tr><tr><td><div>t</div></td></tr><tr><td><div>w</div></td></tr><tr><td><div>t</div></td></tr><tr><td><div>w</div></td></tr><tr><td><div>t</div></td></tr><tr><td><div>w</div></td></tr><tr><td><div>t</div></td></tr><tr><td><div>w</div></td></tr><tr><td><div>t</div></td></tr><tr><td><div>w</div></td></tr><tr><td><div>t</div></td></tr><tr><td><div>h</div></td></tr><tr><td><div>t</div></td></tr><tr><td><div>h</div></td></tr><tr><td><div>t</div></td></tr><tr><td><div>stack</div></td></tr><tr><td><div>t</div></td></tr><tr><td><div>stack</div></td></tr><tr><td><div>t</div></td></tr><tr><td><div>stack</div></td></tr><tr><td><div>t</div></td></tr><tr><td><div>stack</div></td></tr><tr><td><div>t</div></td></tr><tr><td><div>ppo</div></td></tr></table></div></td></tr><tr><td><div><table><tr><td><div>t</div></td></tr><tr><td><div>w</div></td></tr><tr><td><div>t</div></td></tr><tr><td><div>w</div></td></tr><tr><td><div>t</div></td></tr><tr><td><div>w</div></td></tr><tr><td><div>t</div></td></tr><tr><td><div>w</div></td></tr><tr><td><div>t</div></td></tr><tr><td><div>w</div></td></tr><tr><td><div>t</div></td></tr><tr><td><div>w</div></td></tr><tr><td><div>t</div></td></tr><tr><td><div>w</div></td></tr><tr><td><div>t</div></td></tr><tr><td><div>w</div></td></tr><tr><td><div>t</div></td></tr><tr><td><div>w</div></td></tr><tr><td><div>t</div></td></tr><tr><td><div>w</div></td></tr><tr><td><div>t</div></td></tr><tr><td><div>h</div></td></tr><tr><td><div>t</div></td></tr><tr><td><div>h</div></td></tr><tr><td><div>t</div></td></tr><tr><td><div>stack</div></td></tr><tr><td><div>t</div></td></tr><tr><td><div>stack</div></td></tr><tr><td><div>t</div></td></tr><tr><td><div>stack</div></td></tr><tr><td><div>t</div></td></tr><tr><td><div>stack</div></td></tr><tr><td><div>t</div></td></tr><tr><td><div>ppo</div></td></tr></table></div></td></tr><tr><td><div><table><tr><td><div>t</div></td></tr><tr><td><div>w</div></td></tr><tr><td><div>t</div></td></tr><tr><td><div>w</div></td></tr><tr><td><div>t</div></td></tr><tr><td><div>w</div></td></tr><tr><td><div>t</div></td></tr><tr><td><div>w</div></td></tr><tr><td><div>t</div></td></tr><tr><td><div>w</div></td></tr><tr><td><div>t</div></td></tr><tr><td><div>w</div></td></tr><tr><td><div>t</div></td></tr><tr><td><div>w</div></td></tr><tr><td><div>t</div></td></tr><tr><td><div>w</div></td></tr><tr><td><div>t</div></td></tr><tr><td><div>w</div></td></tr><tr><td><div>t</div></td></tr><tr><td><div>w</div></td></tr><tr><td><div>t</div></td></tr><tr><td><div>h</div></td></tr><tr><td><div>t</div></td></tr><tr><td><div>h</div></td></tr><tr><td><div>t</div></td></tr><tr><td><div>stack</div></td></tr><tr><td><div>t</div></td></tr><tr><td><div>stack</div></td></tr><tr><td><div>t</div></td></tr><tr><td><div>stack</div></td></tr><tr><td><div>t</div></td></tr><tr><td><div>stack</div></td></tr><tr><td><div>t</div></td></tr><tr><td><div>ppo</div></td></tr></table></div></td></tr><tr><td><div><table><tr><td><div>t</div></td></tr><tr><td><div>w</div></td></tr><tr><td><div>t</div></td></tr><tr><td><div>w</div></td></tr><tr><td><div>t</div></td></tr><tr><td><div>w</div></td></tr><tr><td><div>t</div></td></tr><tr><td><div>w</div></td></tr><tr><td><div>t</div></td></tr><tr><td><div>w</div></td></tr><tr><td><div>t</div></td></tr><tr><td><div>w</div></td></tr><tr><td><div>t</div></td></tr><tr><td><div>w</div></td></tr><tr><td><div>t</div></td></tr><tr><td><div>w</div></td></tr><tr><td><div>t</div></td></tr><tr><td><div>w</div></td></tr><tr><td><div>t</div></td></tr><tr><td><div>w</div></td></tr><tr><td><div>t</div></td></tr><tr><td><div>h</div></td></tr><tr><td><div>t</div></td></tr><tr><td><div>h</div></td></tr><tr><td><div>t</div></td></tr><tr><td><div>stack</div></td></tr><tr><td><div>t</div></td></tr><tr><td><div>stack</div></td></tr><tr><td><div>t</div></td></tr><tr><td><div>stack</div></td></tr><tr><td><div>t</div></td></tr><tr><td><div>stack</div></td></tr><tr><td><div>t</div></td></tr><tr><td><div>ppo</div></td></tr></table></div></td></tr><tr><td><div><table><tr><td><div>t</div></td></tr><tr><td><div>w</div></td></tr><tr><td><div>t</div></td></tr><tr><td><div>w</div></td></tr><tr><td><div>t</div></td></tr><tr><td><div>w</div></td></tr><tr><td><div>t</div></td></tr><tr><td><div>w</div></td></tr><tr><td><div>t</div></td></tr><tr><td><div>w</div></td></tr><tr><td><div>t</div></td></tr><tr><td><div>w</div></td></tr><tr><td><div>t</div></td></tr><tr><td><div>w</div></td></tr><tr><td><div>t</div></td></tr><tr><td><div>w</div></td></tr><tr><td><div>t</div></td></tr><tr><td><div>w</div></td></tr><tr><td><div>t</div></td></tr><tr><td><div>w</div></td></tr><tr><td><div>t</div></td></tr><tr><td><div>h</div></td></tr><tr><td><div>t</div></td></tr><tr><td><div>h</div></td></tr><tr><td><div>t</div></td></tr><tr><td><div>stack</div></td></tr><tr><td><div>t</div></td></tr><tr><td><div>stack</div></td></tr><tr><td><div>t</div></td></tr><tr><td><div>stack</div></td></tr><tr><td><div>t</div></td></tr><tr><td><div>stack</div></td></tr><tr><td><div>t</div></td></tr><tr><td><div>ppo</div></td></tr></table></div></td></tr><tr><td><div><table><tr><td><div>t</div></td></tr><tr><td><div>w</div></td></tr><tr><td><div>t</div></td></tr><tr><td><div>w</div></td></tr><tr><td><div>t</div></td></tr><tr><td><div>w</div></td></tr><tr><td><div>t</div></td></tr><tr><td><div>w</div></td></tr><tr><td><div>t</div></td></tr><tr><td><div>w</div></td></tr><tr><td><div>t</div></td></tr><tr><td><div>w</div></td></tr><tr><td><div>t</div></td></tr><tr><td><div>w</div></td></tr><tr><td><div>t</div></td></tr><tr><td><div>w</div></td></tr><tr><td><div>t</div></td></tr><tr><td><div>w</div></td></tr><tr><td><div>t</div></td></tr><tr><td><div>w</div></td></tr><tr><td><div>t</div></td></tr><tr><td><div>h</div></td></tr><tr><td><div>t</div></td></tr><tr><td><div>h</div></td></tr><tr><td><div>t</div></td></tr><tr><td><div>stack</div></td></tr><tr><td><div>t</div></td></tr><tr><td><div>stack</div></td></tr><tr><td><div>t</div></td></tr><tr><td><div>stack</div></td></tr><tr><td><div>t</div></td></tr><tr><td><div>stack</div></td></tr><tr><td><div>t</div></td></tr><tr><td><div>ppo</div></td></tr></table></div></td></tr><tr><td><div><table><tr><td><div>t</div></td></tr><tr><td><div>w</div></td></tr><tr><td><div>t</div></td></tr><tr><td><div>w</div></td></tr><tr><td><div>t</div></td></tr><tr><td><div>w</div></td></tr><tr><td><div>t</div></td></tr><tr><td><div>w</div></td></tr><tr><td><div>t</div></td></tr><tr><td><div>w</div></td></tr><tr><td><div>t</div></td></tr><tr><td><div>w</div></td></tr><tr><td><div>t</div></td></tr><tr><td><div>w</div></td></tr><tr><td><div>t</div></td></tr><tr><td><div>w</div></td></tr><tr><td><div>t</div></td></tr><tr><td><div>w</div></td></tr><tr><td><div>t</div></td></tr><tr><td><div>w</div></td></tr><tr><td><div>t</div></td></tr><tr><td><div>h</div></td></tr><tr><td><div>t</div></td></tr><tr><td><div>h</div></td></tr><tr><td><div>t</div></td></tr><tr><td><div>stack</div></td></tr><tr><td><div>t</div></td></tr><tr><td><div>stack</div></td></tr><tr><td><div>t</div></td></tr><tr><td><div>stack</div></td></tr><tr><td><div>t</div></td></tr><tr><td><div>stack</div></td></tr><tr><td><div>t</div></td></tr><tr><td><div>ppo</div></td></tr></table></div></td></tr><tr><td><div><table><tr><td><div>t</div></td></tr><tr><td><div>w</div></td></tr><tr><td><div>t</div></td></tr><tr><td><div>w</div></td></tr><tr><td><div>t</div></td></tr><tr><td><div>w</div></td></tr><tr><td><div>t</div></td></tr><tr><td><div>w</div></td></tr><tr><td><div>t</div></td></tr><tr><td><div>w</div></td></tr><tr><td><div>t</div></td></tr><tr><td><div>w</div></td></tr><tr><td><div>t</div></td></tr><tr><td><div>w</div></td></tr><tr><td><div>t</div></td></tr><tr><td><div>w</div></td></tr><tr><td><div>t</div></td></tr><tr><td><div>w</div></td></tr><tr><td><div>t</div></td></tr><tr><td><div>w</div></td></tr><tr><td><div>t</div></td></tr><tr><td><div>h</div></td></tr><tr><td><div>t</div></td></tr><tr><td><div>h</div></td></tr><tr><td><div>t</div></td></tr><tr><td><div>stack</div></td></tr><tr><td><div>t</div></td></tr><tr><td><div>stack</div></td></tr><tr><td><div>t</div></td></tr><tr><td><div>stack</div></td></tr><tr><td><div>t</div></td></tr><tr><td><div>stack</div></td></tr><tr><td><div>t</div></td></tr><tr><td><div>ppo</div></td></tr></table></div></td></tr><tr><td><div><table><tr><td><div>t</div></td></tr><tr><td><div>w</div></td></tr><tr><td><div>t</div></td></tr><tr><td><div>w</div></td></tr><tr><td><div>t</div></td></tr><tr><td><div>w</div></td></tr><tr><td><div>t</div></td></tr><tr><td><div>w</div></td></tr><tr><td><div>t</div></td></tr><tr><td><div>w</div></td></tr><tr><td><div>t</div></td></tr><tr><td><div>w</div></td></tr><tr><td><div>t</div></td></tr><tr><td><div>w</div></td></tr><tr><td><div>t</div></td></tr><tr><td><div>w</div></td></tr><tr><td><div>t</div></td></tr><tr><td><div>w</div></td></tr><tr><td><div>t</div></td></tr><tr><td><div>w</div></td></tr><tr><td><div>t</div></td></tr><tr><td><div>h</div></td></tr><tr><td><div>t</div></td></tr><tr><td><div>h</div></td></tr><tr><td><div>t</div></td></tr><tr><td><div>stack</div></td></tr><tr><td><div>t</div></td></tr><tr><td><div>stack</div></td></tr><tr><td><div>t</div></td></tr><tr><td><div>stack</div></td></tr><tr><td><div>t</div></td></tr><tr><td><div>stack</div></td></tr><tr><td><div>t</div></td></tr><tr><td><div>ppo</div></td></tr></table></div></td></tr></table></div></td></tr></table></div>'
tRp227
sS'etype'
p228
S"<type 'exceptions.SyntaxError'>"
p229
sS'date'
p230
S'Sun Apr 27 11:02:33 2014'
p231
sS'response'
p232
g69
(S's#\x1c\x00\x00<div><table><tr><td style="font-weight:bold;vertical-align:top;">body</td><td style="vertical-align:top;">:</td><td><div>&lt;cStringIO.StringO object at 0xadf781c0&gt;</div></td></tr><tr><td style="font-weight:bold;vertical-align:top;">cookies</td><td style="vertical-align:top;">:</td><td><div><table><tr><td style="font-weight:bold;vertical-align:top;">session_id_project</td><td style="vertical-align:top;">:</td><td><div>127.0.0.1-571a3233-9ca0-4ceb-a0ea-4df94c6a70dd<table><tr><td style="font-weight:bold;vertical-align:top;">comment</td><td style="vertical-align:top;">:</td><td><div></div></td></tr><tr><td style="font-weight:bold;vertical-align:top;">domain</td><td style="vertical-align:top;">:</td><td><div></div></td></tr><tr><td style="font-weight:bold;vertical-align:top;">expires</td><td style="vertical-align:top;">:</td><td><div></div></td></tr><tr><td style="font-weight:bold;vertical-align:top;">httponly</td><td style="vertical-align:top;">:</td><td><div></div></td></tr><tr><td style="font-weight:bold;vertical-align:top;">max-age</td><td style="vertical-align:top;">:</td><td><div></div></td></tr><tr><td style="font-weight:bold;vertical-align:top;">path</td><td style="vertical-align:top;">:</td><td><div>/</div></td></tr><tr><td style="font-weight:bold;vertical-align:top;">secure</td><td style="vertical-align:top;">:</td><td><div></div></td></tr><tr><td style="font-weight:bold;vertical-align:top;">version</td><td style="vertical-align:top;">:</td><td><div></div></td></tr></table></div></td></tr></table></div></td></tr><tr><td style="font-weight:bold;vertical-align:top;">delimiters</td><td style="vertical-align:top;">:</td><td><div><table><tr><td><div>{{</div></td></tr><tr><td><div>}}</div></td></tr></table></div></td></tr><tr><td style="font-weight:bold;vertical-align:top;">files</td><td style="vertical-align:top;">:</td><td><div><table></table></div></td></tr><tr><td style="font-weight:bold;vertical-align:top;">flash</td><td style="vertical-align:top;">:</td><td><div>check2</div></td></tr><tr><td style="font-weight:bold;vertical-align:top;">generic_patterns</td><td style="vertical-align:top;">:</td><td><div><table></table></div></td></tr><tr><td style="font-weight:bold;vertical-align:top;">headers</td><td style="vertical-align:top;">:</td><td><div><table><tr><td style="font-weight:bold;vertical-align:top;">X-Powered-By</td><td style="vertical-align:top;">:</td><td><div>web2py</div></td></tr></table></div></td></tr><tr><td style="font-weight:bold;vertical-align:top;">menu</td><td style="vertical-align:top;">:</td><td><div><table><tr><td><div><table><tr><td><div>Index</div></td></tr><tr><td><div>False</div></td></tr><tr><td><div>/project/meet/index</div></td></tr><tr><td><div><table></table></div></td></tr></table></div></td></tr><tr><td><div><table><tr><td><div>Calendar</div></td></tr><tr><td><div>False</div></td></tr><tr><td><div>/project/meet/mycal</div></td></tr><tr><td><div><table></table></div></td></tr></table></div></td></tr><tr><td><div><table><tr><td><div>email</div></td></tr><tr><td><div>False</div></td></tr><tr><td><div>/project/meet/emailusers</div></td></tr><tr><td><div><table></table></div></td></tr></table></div></td></tr></table></div></td></tr><tr><td style="font-weight:bold;vertical-align:top;">meta</td><td style="vertical-align:top;">:</td><td><div><table><tr><td style="font-weight:bold;vertical-align:top;">author</td><td style="vertical-align:top;">:</td><td><div>Massimo &lt;mdipierro@cs.depaul.edu&gt;</div></td></tr><tr><td style="font-weight:bold;vertical-align:top;">description</td><td style="vertical-align:top;">:</td><td><div></div></td></tr><tr><td style="font-weight:bold;vertical-align:top;">keywords</td><td style="vertical-align:top;">:</td><td><div></div></td></tr></table></div></td></tr><tr><td style="font-weight:bold;vertical-align:top;">models_to_run</td><td style="vertical-align:top;">:</td><td><div><table><tr><td><div>^\\w+\\.py$</div></td></tr><tr><td><div>^meet/\\w+\\.py$</div></td></tr><tr><td><div>^meet/tenth/\\w+\\.py$</div></td></tr></table></div></td></tr><tr><td style="font-weight:bold;vertical-align:top;">postprocessing</td><td style="vertical-align:top;">:</td><td><div><table></table></div></td></tr><tr><td style="font-weight:bold;vertical-align:top;">session_client</td><td style="vertical-align:top;">:</td><td><div>127.0.0.1</div></td></tr><tr><td style="font-weight:bold;vertical-align:top;">session_cookie_compression_level</td><td style="vertical-align:top;">:</td><td><div>None</div></td></tr><tr><td style="font-weight:bold;vertical-align:top;">session_cookie_expires</td><td style="vertical-align:top;">:</td><td><div>None</div></td></tr><tr><td style="font-weight:bold;vertical-align:top;">session_cookie_key</td><td style="vertical-align:top;">:</td><td><div>None</div></td></tr><tr><td style="font-weight:bold;vertical-align:top;">session_data_name</td><td style="vertical-align:top;">:</td><td><div>session_data_project</div></td></tr><tr><td style="font-weight:bold;vertical-align:top;">session_file</td><td style="vertical-align:top;">:</td><td><div>&lt;open file &#x27;/ug/ug2k13/cse/srikailash.gandebathula/Desktop/web2py/applications/project/sessions/127.0.0.1-571a3233-9ca0-4ceb-a0ea-4df94c6a70dd&#x27;, mode &#x27;rb+&#x27; at 0xaf814860&gt;</div></td></tr><tr><td style="font-weight:bold;vertical-align:top;">session_filename</td><td style="vertical-align:top;">:</td><td><div>/ug/ug2k13/cse/srikailash.gandebathula/Desktop/web2py/applications/project/sessions/127.0.0.1-571a3233-9ca0-4ceb-a0ea-4df94c6a70dd</div></td></tr><tr><td style="font-weight:bold;vertical-align:top;">session_hash</td><td style="vertical-align:top;">:</td><td><div>f4e2102fdc463febb47cc2ce80fd5eae</div></td></tr><tr><td style="font-weight:bold;vertical-align:top;">session_id</td><td style="vertical-align:top;">:</td><td><div>127.0.0.1-571a3233-9ca0-4ceb-a0ea-4df94c6a70dd</div></td></tr><tr><td style="font-weight:bold;vertical-align:top;">session_id_name</td><td style="vertical-align:top;">:</td><td><div>session_id_project</div></td></tr><tr><td style="font-weight:bold;vertical-align:top;">session_locked</td><td style="vertical-align:top;">:</td><td><div>True</div></td></tr><tr><td style="font-weight:bold;vertical-align:top;">session_masterapp</td><td style="vertical-align:top;">:</td><td><div>project</div></td></tr><tr><td style="font-weight:bold;vertical-align:top;">session_new</td><td style="vertical-align:top;">:</td><td><div>False</div></td></tr><tr><td style="font-weight:bold;vertical-align:top;">session_storage_type</td><td style="vertical-align:top;">:</td><td><div>file</div></td></tr><tr><td style="font-weight:bold;vertical-align:top;">status</td><td style="vertical-align:top;">:</td><td><div>200</div></td></tr><tr><td style="font-weight:bold;vertical-align:top;">subtitle</td><td style="vertical-align:top;">:</td><td><div>manage time and location</div></td></tr><tr><td style="font-weight:bold;vertical-align:top;">title</td><td style="vertical-align:top;">:</td><td><div>My Appointments</div></td></tr><tr><td style="font-weight:bold;vertical-align:top;">view</td><td style="vertical-align:top;">:</td><td><div>meet/tenth.html</div></td></tr></table></div>'
tRp233
sS'locals'
p234
(dp235
S'name'
p236
S"'email'"
p237
sS'fields'
p238
S"{'email': 'srikailashukcs@gmail.com', 'user_name': 't'}"
p239
sS'self'
p240
S'<Table stack_users (id,user_name)>'
p241
sS'update'
p242
S'False'
p243
sS'value'
p244
S"'t'"
p245
sS'field'
p246
S'<gluon.dal.Field object>'
p247
sS'new_fields'
p248
S"{'user_name': (<gluon.dal.Field object>, 't')}"
p249
sssS'traceback'
p250
S'Traceback (most recent call last):\n  File "/ug/ug2k13/cse/srikailash.gandebathula/Desktop/web2py/gluon/restricted.py", line 220, in restricted\n    exec ccode in environment\n  File "/ug/ug2k13/cse/srikailash.gandebathula/Desktop/web2py/applications/project/controllers/meet.py", line 264, in <module>\n  File "/ug/ug2k13/cse/srikailash.gandebathula/Desktop/web2py/gluon/globals.py", line 385, in <lambda>\n    self._caller = lambda f: f()\n  File "/ug/ug2k13/cse/srikailash.gandebathula/Desktop/web2py/gluon/tools.py", line 3287, in f\n    return action(*a, **b)\n  File "/ug/ug2k13/cse/srikailash.gandebathula/Desktop/web2py/applications/project/controllers/meet.py", line 181, in tenth\n    tb.insert(user_name=user,email=emailid)\n  File "/ug/ug2k13/cse/srikailash.gandebathula/Desktop/web2py/gluon/dal.py", line 9114, in insert\n    ret =  self._db._adapter.insert(self, self._listify(fields))\n  File "/ug/ug2k13/cse/srikailash.gandebathula/Desktop/web2py/gluon/dal.py", line 9040, in _listify\n    \'Field %s does not belong to the table\' % name)\nSyntaxError: Field email does not belong to the table\n'
p251
s.